(dp0
VI YEAR B. A. PROGRAMME
p1
(lp2
VEnglish A
p3
aVEnglish Disc
p4
aVUrdu A
p5
aVUrdu B
p6
aVHistory of India upto c 300 BCE
p7
aVPrinciples of Microeconomics
p8
aVIntroduction to Political Theory
p9
aVHindi A
p10
aVI B.A. Prog Hindi B
p11
aVI B.A. Prog Hindi C
p12
aVLogic I
p13
aVEnvironmental Studies-QP-IV
p14
asVIII YEAR B. A. HONOURS HISTORY
p15
(lp16
VHistory of India V, c 1550-1605
p17
aVHistory of India,VI c 1750-1857
p18
aVHistory of China and Japan I c 1840-1949
p19
aVHistory of Europe I c 1780-1939
p20
asVIII YEAR B. A. PROGRAMME
p21
(lp22
VApplication Course
p23
aVMass Communations
p24
aVHistory of India V, c 1750-1970
p25
aVEconomic Development and Policy in India-I
p26
aVInternational Relations
p27
aVIssues In World History I ( The 20th Century)
p28
aVPhilosophical Debates I
p29
aVFluency in English
p30
aVEnglish A (Dis Eng III B.A. Prog)
p31
asVIII YEAR B. A. HONOURS ECONOMICS
p32
(lp33
VOptional 1
p34
aVDevelopment Theory and Experience -I
p35
aVPublic Economics
p36
aVIndian Economic Development since 1947 II
p37
asVI YEAR PHILOSOPHY
p38
(lp39
VConcurrent  Qualifying Language
p40
aVTraditional Logic (Sec A) Informal Fallacies (Sec B)
p41
aVElements Of Indian Philosophy I
p42
asVII YEAR B. SC. PROG. CHEMISTRY
p43
(lp44
sVII YEAR B. A. HONOURS ECONOMICS -SEC B
p45
(lp46
VCalculus (Allied Course II Eco and II Engl)
p47
aVFundamentals of Computer System (Allied Course)
p48
aVUnderstanding Ambedkar (Allied Course)
p49
aVIndividual and Society (Allied Course)
p50
aVStatistical Methods in Economics II Sec B
p51
aVMicroeconomics I Sec B
p52
aVMacroeconomics I Sec B
p53
aVIntroductory Economics (Allied Course)
p54
aVDeductive and Inductive Logic (II Maths and Econ)
p55
aVHistory of India upto c 300 BCE (II Eng Eco and sanskrit)
p56
asVI YEAR HISTORY
p57
(lp58
VConcurrent  Qualifying Language
p59
aVhistory of India I
p60
aVSocial Formations
p61
aVEnvironmental Issues of India
p62
aVEnvironmental Studies-QP-III
p63
asVII YEAR B. A. HONOURS ECONOMICS -SEC A
p64
(lp65
VCalculus (Allied Course II Eco and II Engl)
p66
aVFundamentals of Computer System (Allied Course)
p67
aVUnderstanding Ambedkar (Allied Course)
p68
aVIndividual and Society (Allied Course)
p69
aVStatistical Methods in Economics II Sec A
p70
aVMicroeconomics I Sec A
p71
aVMacroeconomics I SecA
p72
aVIntroductory Economics (Allied Course)
p73
aVDeductive and Inductive Logic (II Maths and Econ)
p74
aVHistory of India upto c 300 BCE (II Eng Eco and sanskrit)
p75
asVIII YEAR B. SC. PROG. COMPUTER SCIENCE
p76
(lp77
VChemistry - I-CHCT - 501
p78
aVPhysics V PHPT 505
p79
aVMaths V
p80
aVChemistry I CHCP 501
p81
aVComputer Networks CSPT 505
p82
aVPhysics Lab V PHPP 505 (Sec B)
p83
asVIII YEAR B. A. HONOURS SANSKRIT
p84
(lp85
VVedic Literature
p86
aVReasoning Ontology Epistemology and Logic
p87
aVLinguistics and Philosophy of language
p88
aVIndian Epigraphy, Paleography and Chronology
p89
asVI YEAR SANSKRIT
p90
(lp91
VConcurrent  Qualifying Language
p92
aVProficiency in Sanskrit Language 1
p93
aVSanskrit Literature 1
p94
asVII YEAR B. SC. HONOURS CHEMISTRY
p95
(lp96
VInorganic Principles of Metallurgy and Chemistry of S Block Elements
p97
aVInorganic IODO and IODimetric Titrations
p98
aVOrganic Functional Group Detection Paper 6
p99
aVOrganic Physical Kinetics Paper 7
p100
aVOrganic Aliphatic Hydrocarbons Halogenated Hydr
p101
aVOrganic Carbonyl Compounds Physical Chemical Kinetics
p102
aVCalculus (Allied Course)
p103
asVII YEAR B. SC. HONOURS PHYSICS
p104
(lp105
VMathematical Physics II
p106
aVDigital Systems and Applications
p107
aVWaves and Optics
p108
aVPhysics Lab III A
p109
aVPhysics Lab III B (Group A)
p110
aVPhysics Lab IV A (Group B)
p111
aVReal Analysis (Allied Course)
p112
aVPhysics Lab III B (Group B)
p113
aVPhysics Lab IV A (Group A)
p114
asVI YEAR CHEMISTRY
p115
(lp116
VInorganic Chemistry I-CHHP 101
p117
aVOrganic Chemistry I
p118
aVInorganic Chemistry - I-CHHT 101
p119
aVOrganic Chemistry - I CHHP 102
p120
aVTechnical Writing-I
p121
aVMathematics-MACT 101
p122
asVIII YEAR B. SC. PROG. CHEMISTRY
p123
(lp124
VChemistry V
p125
aVChemistry - V CHPP 505
p126
aVPhysics V PHPT 505
p127
aVPhysics Lab V PHPP 505 (Sec A)
p128
aVMaths V
p129
aVPhysics Lab V PHPP 505 (Sec B)
p130
aVDatabase and visual Basic CSCT 501
p131
asVIII YEAR B. A. HONOURS PHILOSOPHY
p132
(lp133
VText of Philosophy I
p134
aVPhilosophy of Language I
p135
aVContemporary Philosophy I
p136
aVEthics I
p137
asVII YEAR B. A. HONOURS SANSKRIT
p138
(lp139
VSanskrit Literature (Drama)
p140
aVCritical Survey of Sanskrit Literature
p141
aVSelf Management in the Bhagawadgita
p142
aVFundamentals of Computer System (Allied Course)
p143
aVAllied Course Hindi
p144
aVIntroductory Economics (Allied Course)
p145
aVHistory of India upto c 300 BCE (II Eng Eco and sanskrit)
p146
asVII YEAR B. A. HONOURS ENGLISH -SEC B
p147
(lp148
VUrdu Language and Literature I
p149
aVCalculus (Allied Course II Eco and II Engl)
p150
aVUnderstanding Ambedkar (Allied Course)
p151
aVAllied Course Hindi
p152
aVBritish Poetry and Drama 17 Sec B
p153
aVAmerican Literature Sec B
p154
aV18 Century Literature Sec B
p155
aVIntroductory Economics (Allied Course)
p156
aVDeductive and Inductive Logic (Sec A)
p157
aVHistory of India upto c 300 BCE (II Eng Eco and sanskrit)
p158
asVIII YEAR B. SC. HONOURS MATHEMATICS
p159
(lp160
VDifferential Eqn. and Math Modeling III(Practical)
p161
aVDifferential Equations and Mathematical Modelling III
p162
aVAnalysis IV
p163
aVAlgebra IV
p164
aVLinear Programming and Theory of Games
p165
asVII YEAR B. A. HONOURS ENGLISH -SEC A
p166
(lp167
VUrdu Language and Literature I
p168
aVCalculus (Allied Course II Eco and II Engl)
p169
aVUnderstanding Ambedkar (Allied Course)
p170
aVAllied Course Hindi
p171
aVBritish Poetry and Drama 17 SecA
p172
aVAmerican literarure Sec A
p173
aV18 Century Literature Sec A
p174
aVIntroductory Economics (Allied Course)
p175
aVDeductive and Inductive Logic (Sec A)
p176
aVHistory of India upto c 300 BCE (II Eng Eco and sanskrit)
p177
asVII YEAR B. A. PROGRAMME
p178
(lp179
sVIII YEAR B. SC. HONOURS PHYSICS
p180
(lp181
VMathematical Physics V PHHT 515
p182
aVQuantum Physics PHHT 516
p183
aVElectronic Devices PHHT 518
p184
aVPhysics Lab V PHHP V
p185
aVAtomic and Molecular Physics PHHT 517
p186
aVPhysics Lab VI PHHP VI
p187
asVI YEAR ENGLISH
p188
(lp189
VConcurrent  Qualifying Language
p190
aVVictorian Literature19 Century Literature
p191
aVTwentieth Century Indian Writing
p192
aVEnvironmental Issues of India
p193
aVEnvironmental Studies-QP-II
p194
asVII YEAR B. A. HONOURS PHILOSOPHY
p195
(lp196
VUrdu Language and Literature I
p197
aVUnderstanding Ambedkar (Allied Course)
p198
aVIndividual and Society (Allied Course)
p199
aVIntroductory Economics (Allied Course)
p200
aVMetaphysics and Epistemology
p201
aVSocial and Political Philosophy
p202
aVLogic II
p203
asVI YEAR MATHEMATICS
p204
(lp205
VCalculus (Practical)
p206
aVCredit Course
p207
aVEnvironmental Issues of India
p208
aVCalculus I
p209
aVAnalysis I
p210
aVAlgebra I
p211
aVEnvironmental Studies-QP-I
p212
asVI YEAR B. SC. PROG. COMPUTER SCIENCE
p213
(lp214
VPhysics I PHPT 101
p215
aVPhysics Lab - PHPP101
p216
aVMaths I
p217
aVFundamentals of Programming CSPT 101
p218
aVTechnical Writing-III
p219
asVIII YEAR B. SC. HONOURS CHEMISTRY
p220
(lp221
VInorganic Chemistry IV
p222
aVOrganic Chemistry IV
p223
aVPhysical Chemistry IV
p224
aVBiochemistry and Environmental Chemistry
p225
aVInorganic Chemistry - IV CHHP 511
p226
aVOrganic Chemistry - IV CHHP 512
p227
aVPhysical Chemistry - IV CHHP 513
p228
aVBiochemistry and Envir Chemistry CHHP 514
p229
asVII YEAR B. SC. HONOURS MATHEMATICS
p230
(lp231
VAnalysis II
p232
aVNumerical Methods
p233
aVAlgebra II
p234
aVFundamentals of Computer System (Allied Course)
p235
aVUnderstanding Ambedkar (Allied Course)
p236
aVIndividual and Society (Allied Course)
p237
aVNumerical Methods Practical batch I
p238
aVNumerical Methods Practical batch-II
p239
aVIntroductory Economics (Allied Course)
p240
aVDeductive and Inductive Logic (II Maths and Econ)
p241
asVI YEAR ECONOMICS
p242
(lp243
VConcurrent  Qualifying Language
p244
aVEnvironmental Issues of India
p245
aVIntroductory Microeconomics
p246
aVStatistical Methods I
p247
aVMathematical Methods I
p248
asVI YEAR PHYSICS
p249
(lp250
VMathematical Physics I
p251
aVMechanics
p252
aVChemistry CHCT-101
p253
aVChemistry - CHCP 101
p254
aVPhysics Lab I PHHP I
p255
aVTechnical Writing-II
p256
asVII YEAR B. SC. PROG. COMPUTER SCIENCE
p257
(lp258
sVII YEAR B. A. HONOURS HISTORY
p259
(lp260
VUrdu Language and Literature I
p261
aVHistory of India c 750-1200
p262
aVRise of Modern World I
p263
aVModern East Asia I
p264
aVUnderstanding Ambedkar (Allied Course)
p265
aVIndividual and Society (Allied Course)
p266
aVAllied Course Hindi
p267
aVIntroductory Economics (Allied Course)
p268
aVDeductive and Inductive Logic (Sec A)
p269
asVI YEAR B. SC. PROG. CHEMISTRY
p270
(lp271
VPhysics I PHPT 101
p272
aVChemistry I-CHPT-101
p273
aVChemistry -CHPP 101
p274
aVPhysics Lab - PHPP101
p275
aVMaths I
p276
aVComputational Skills CSAT 101
p277
aVTechnical Writing-III
p278
asVIII YEAR B. A. HONOURS ENGLISH
p279
(lp280
VOptional English
p281
aV17 English Literature 5 (i)
p282
aV18 Contemporary Literature (i)
p283
aV19 B Literature Theory (i)
p284
aV16 English Lit 3(ii)
p285
as.