(dp0
Vmathematics
p1
(dp2
I1
(lp3
S'Student Name'
p4
aS'ADITYA PRASAD'
p5
aS'AJIL JOSEPH'
p6
aS'AKANKSHITA DASH'
p7
aS'AKRITI TEWARI'
p8
aS'AKSHAY KUMAR VT'
p9
aS'AKSHITA SAHNI'
p10
aS'ALLEN LEOM LEPCHA'
p11
aS'AMANDEEP KAPOOR'
p12
aS'AMIT KUMAR'
p13
aS'ANJANA TIRKEY'
p14
aS'ANNA MARY SAJAN'
p15
aS'ANNIE TRESSA ROY'
p16
aS'ANSH'
p17
aS'ANSH RATIK SHARMA'
p18
aS'APARNA MISRA'
p19
aS'ARUSHI VISHWAKARMA'
p20
aS'AUGUS KURIAN'
p21
aS'AYUSHI CHAUHAN'
p22
aS'BHAVYA MADAN'
p23
aS'CHRISTY JOSEPH'
p24
aS'DEEPA ANTONY'
p25
aS'DEEPAK GOTHWAL'
p26
aS'DEEPAK KUMAR'
p27
aS'DEV BARAYA'
p28
aS'DIMTHAOREI PANMEI'
p29
aS'GARIMA THAREJA'
p30
aS'GEMI RACHEL GEORGE'
p31
aS'GEORGE SHAJI'
p32
aS'GIDEON KANSOUWA'
p33
aS'HARUKA GEORGE'
p34
aS'HAVISHA KHURANA'
p35
aS'HIMANSHU MITTAL'
p36
aS'JERIN GEORGE'
p37
aS'JOSEPH TOMS'
p38
aS'KEVIN KOSHY PANICKER'
p39
aS'MALVIKA RAJEEV'
p40
aS'MANISHA ANN JOSEPH'
p41
aS'MAREENA WILSON'
p42
aS'MAYANK AHUJA'
p43
aS'NIHARIKA SHARMA'
p44
aS'NIKHIL MATHEW'
p45
aS'NITI BHANDARI'
p46
aS'PANKAJ KAPARI'
p47
aS'PIYUSH ABRAHAM'
p48
aS'PRAACHI KHERA'
p49
aS'PRAGATI GOEL'
p50
aS'PRIYANKA'
p51
aS'RAGHAV ADLAKHA'
p52
aS'RAGHAV RANVEER TALWAR'
p53
aS'RAJIV SAVIO HERALD LINGALA'
p54
aS'RHEA MIRIAM GOMEZ'
p55
aS'ROHAN THOMAS ABRAHAM'
p56
aS'SAKSHI SINGH'
p57
aS'SAMSON SATISH LAL'
p58
aS'SIDDHARTH BATRA'
p59
aS'TARU TEKRIWAL'
p60
aS'THEMSHANGLA WUNGKHAI'
p61
aS'THRESY JOSE THARAKAN'
p62
aS'TONY NIXON MAVELY'
p63
aS'VANESSA ANN BEDDOE SAWKMIE'
p64
aS'YASH MOHAN SHERRY'
p65
asI2
(lp66
S'Student Name'
p67
aS'ADITI METHI'
p68
aS'AKHIL MATHEW ABRAHAM'
p69
aS'AKSHAYA ANN JOHN'
p70
aS'ALICE PASKIN'
p71
aS'AMANDA VICTOR'
p72
aS'ANANYA MANCHANDA'
p73
aS'ANJANA TOMY'
p74
aS'ANJU VARGHESE'
p75
aS'ANKIT GUPTA'
p76
aS'ANNU TOMAR'
p77
aS'ARUN JOY'
p78
aS'ASHNA SUSAN VARKEY'
p79
aS'B JOSHUA'
p80
aS'DEEKSHA SINGH'
p81
aS'DEEPAK KUMAR'
p82
aS'DILSHEEN KAUR SAHNI'
p83
aS'DITTO ABRAHAM THADATHIL'
p84
aS'GAURAV KUMAR'
p85
aS'HARMANDEEP KAUR'
p86
aS'HARSHIT ARORA'
p87
aS'HENRY GOMES'
p88
aS'JAMES CORNELIUS'
p89
aS'JASLEEN KAUR'
p90
aS'JENNIFER JAMES'
p91
aS'JISHA MATHEWS'
p92
aS'JISMOL JOY'
p93
aS'JOVIT GEORGE'
p94
aS'JUSTIN JOSE'
p95
aS'KANIKA VERMA'
p96
aS'KH JOVEINE'
p97
aS'KRITI SHARMA'
p98
aS'LUDHIYA JOHNSON'
p99
aS'MANISHA YADAV'
p100
aS'MANUJ GARG'
p101
aS'NIJITA MATHEW'
p102
aS'PULKIT JOSHI'
p103
aS'RABIN JACOB'
p104
aS'RAJAT RODNEY'
p105
aS'RITU BHARDWAJ'
p106
aS'ROSEMARY THOMAS'
p107
aS'ROSHNI VARGHESE'
p108
aS'ROSMY DAVIS'
p109
aS'SABORNI SAHA'
p110
aS'SAHIL'
p111
aS'SAM JOHN KOSHY'
p112
aS'SHARON THOMAS'
p113
aS'SHREYA JAIN'
p114
aS'SHRIRAM'
p115
aS'SHUBHAM KAUSHIK'
p116
aS'SIJO ABRAHAM'
p117
aS'SNEHA MATHEW'
p118
aS'SUKRITA DEB'
p119
aS'SUMEET SIDDHARTH'
p120
aS'SURABHI AGRAWAL'
p121
aS'SUZANNE SANTHARAJ'
p122
aS'VAISHNAVI VERMA'
p123
aS'VIJENDRA KUMAR'
p124
aS'YAMINI AGARWAL'
p125
asI3
(lp126
S'Student Name'
p127
aS'AAKRITI MAKKER'
p128
aS'AJEET KUMAR'
p129
aS'AJO JOMY'
p130
aS'ANCHAL CHADHA'
p131
aS'ANCHALA PATEL'
p132
aS'ANMOL VIRMANI'
p133
aS'ANNE GEORGE'
p134
aS'ANTONY C J'
p135
aS'ANU ARORA'
p136
aS'ANUSHKA GOEL'
p137
aS'ARSHIYA KAUR'
p138
aS'ARUN GARG'
p139
aS'BHAWNA'
p140
aS'CHRIS JOHN'
p141
aS'DEEPANSH GILL'
p142
aS'DEEPSHIKHA ACHARYA'
p143
aS'DEEPTO MAZUMDAR'
p144
aS'DINESH KUMAR KAKRAN'
p145
aS'HINA GOYAL'
p146
aS'JASMEEN KAUR'
p147
aS'KUNAL YADAV'
p148
aS'LAVEENA SACHDEVA'
p149
aS'LEEZA ABRAHAM'
p150
aS'MANASIJ PAL CHOWDHURY'
p151
aS'MEGHA'
p152
aS'MRINAL ALEXANDER EMMANUEL'
p153
aS'NAVDEEP'
p154
aS'NISHA'
p155
aS'NITESH KUMAR'
p156
aS'OSHIN PARANJAPE'
p157
aS'POOJA'
p158
aS'POOJA RATHEE'
p159
aS'PRAGATI DEMBLA'
p160
aS'PRAKRITI KALRA'
p161
aS'RAJAT GOYAL'
p162
aS'RAKTIM SEN'
p163
aS'RINYO A VALVI'
p164
aS'RITA SNEHA GOMES'
p165
aS'SHAHID AHMED'
p166
aS'SHEIKH FARHAN AMIN'
p167
aS'SHIVANI MADAN'
p168
aS'SHRADHA AGRAWAL'
p169
aS'SHREYASHI TIWARI'
p170
aS'SHUBHANGI AGARWAL'
p171
aS'SNEHA DHANKAR'
p172
aS'SONAL MAROO'
p173
aS'SUMIT KUMAR'
p174
aS'TAMANNA'
p175
aS'TANYA JAIN'
p176
aS'TARUN SINGH'
p177
aS'UJJWAL'
p178
aS'UNMESH MONDAL'
p179
aS'VARUNESH CHANDRA'
p180
aS'VISHVENDER DAHIYA'
p181
aS'VIVEK KUMAR'
p182
aS'VIVEK NAGAYACH'
p183
aS'WAYENBAM RICKSON SINGH'
p184
assVphilosophy
p185
(dp186
I1
(lp187
S'Student Name'
p188
aS'ADITYA SRINIVASAN'
p189
aS'AMBIKA MALIK'
p190
aS'KETHOZHAVI LIEGISE'
p191
aS'LUDIA SARA SUNNY'
p192
aS'NAMRATA NARULA'
p193
aS'RAJASVI GANDHI'
p194
aS'ROHAN THOMAS'
p195
aS'SANJANA SRIDHAR'
p196
aS'SIDDHARTH SINGH'
p197
aS'SUNAYANA KHANDELWAL'
p198
aS'UDEPRATAAP SINGH SANDHU'
p199
aS'VINEET GEORGE'
p200
asI2
(lp201
S'Student Name'
p202
aS'ACHYUDANAND JHA'
p203
aS'MUKUL DWIVEDI'
p204
aS'NARESH KUMAR'
p205
aS'PRAGATI MALHOTRA'
p206
aS'RANJAN RAJ'
p207
aS'SHASHANK SHEKHAR SINGH'
p208
aS'SONIA'
p209
aS'SURUCHI'
p210
aS'TANYA JHA'
p211
aS'UMA KUMARI'
p212
asI3
(lp213
S'Student Name'
p214
aS'JAGRITI WALIA'
p215
aS'KRISHNA KANT AWASTHI'
p216
aS'PANKAJ KUMAR JHA'
p217
aS'SHASHI PRABHA'
p218
aS'SUYOG MISHRA'
p219
aS'UPASIKA GHOSH'
p220
aS'VAIBHAV SHUKLA'
p221
assVenglish
p222
(dp223
I1
(lp224
S'Student Name'
p225
aS'AHAN JOSHUA PENKAR'
p226
aS'AJAY KURIAN'
p227
aS'ANAGHA GOPAL'
p228
aS'ANANDITA THAKUR'
p229
aS'ASHWIN CHETTRI'
p230
aS'AVANTIKA SINGHA'
p231
aS'BIAMBI NIEPUSENO C. B. SANGMA'
p232
aS'CINGH SAN NEM'
p233
aS'DAVID ANDREW YADAV'
p234
aS'DEBORAH DEKA'
p235
aS'DEVARATI CHAKRABARTI'
p236
aS'GENA FAZEL'
p237
aS'GURMAN SINGH'
p238
aS'HAMEAI BANSAN LYNGDOH'
p239
aS'ISAAC'
p240
aS'ISHWARI DEKA'
p241
aS'MEBIN MATHEW PAUL'
p242
aS'NILESH CHAUDHARY'
p243
aS'P RITIKA RAO'
p244
aS'POOJA MARY GEORGE'
p245
aS'RACHEL'
p246
aS'RACHEL ALEXANDER'
p247
aS'RISHI BRYAN'
p248
aS'RUHAAB KHAN'
p249
aS'SAMEER . .'
p250
aS'SHARATH JOHNSON BOSCO'
p251
aS'SHIRIN CHOUDHARY'
p252
aS'SHUBHAM ARYA'
p253
aS'SONGAYAM ZIMIK'
p254
aS'SPANDANA KALITA'
p255
aS'UZMA SHAMIM'
p256
aS'YAUVANIKA CHOPRA'
p257
asI2
(lp258
S'Student Name'
p259
aS'AASHISH JINDAL'
p260
aS'AINA SINGH'
p261
aS'AMBIKA TANDON'
p262
aS'ANANYA HAZARIKA'
p263
aS'ANN MARY RAPHY'
p264
aS'APOORVA DIMRI'
p265
aS'ASHWIN KANAN'
p266
aS'JOANNA MATHEWS'
p267
aS'KADAMBARI BAHL'
p268
aS'KAVYA TRESA BENNY'
p269
aS'MAHIMA SINGH'
p270
aS'MEGHNA DASS'
p271
aS'NABEELA NAZIR RIZVI'
p272
aS'NIDHI DASS'
p273
aS'PRERNA SUBRAMANIAN'
p274
aS'RACHEL ROJY'
p275
aS'RAJAT SHARMA'
p276
aS'SANAA BHUTANI'
p277
aS'SARAH JAMES'
p278
aS'SHAYANTANI DAS'
p279
aS'SHERLENE SHERIDON'
p280
aS'SHIVALIKA SHANKAR'
p281
aS'SOUMYA BAHUGUNA'
p282
aS'SUKRITI BHARDWAJ'
p283
aS'SUMEDHA CHAKRAVARTHY'
p284
aS'TANYA SAGAR'
p285
aS'VALLIKA VERMA'
p286
aS'VIBHU SHARMA'
p287
aS'VRINDA SHARMA'
p288
asI3
(lp289
S'Student Name'
p290
aS'ADEETI PETER'
p291
aS'ALPHIE M JOSEPH'
p292
aS'AMRITA CHAKRAVARTY'
p293
aS'ANKIT SHARMA'
p294
aS'ANN VARGHESE KURIAN'
p295
aS'ASHOKA VARDHAN MANCHALA'
p296
aS'AVANTIKA VISWANATHAN'
p297
aS'AYUSH RANJAN'
p298
aS'BONOMI K MURUMI'
p299
aS'CANDACE ANDREW'
p300
aS'CARL JAISON'
p301
aS'CHETAN CHAWLA'
p302
aS'CHOPEL WANGCHUK BHUTIA'
p303
aS'DHANANJAY SINGH GARHA'
p304
aS'DHRUV SHEKHAR'
p305
aS'DIAS MARIO ANTONY'
p306
aS'EKTA CHAUHAN'
p307
aS'FALGUNI TEWARI'
p308
aS'GOPIKA SINGH JUDEV'
p309
aS'HIMAKI KUMARI RATHORE'
p310
aS'IFRA JAN'
p311
aS'JIYASH G PHILIPOSE'
p312
aS'JONATHAN STEPHEN'
p313
aS'JUHI PRASAD'
p314
aS'K JOHN KOSHY'
p315
aS'KABIR UPMANYU'
p316
aS'KAUSHIK NAG'
p317
aS'LANGSUN JOSEPH J MATE'
p318
aS'LAUREN ROBINSON'
p319
aS'LEONARD HENRY'
p320
aS'MANNGAILUN ZOU'
p321
aS'MATHEW JOSEPH'
p322
aS'NEIL ALEXANDER'
p323
aS'NISHANT GEORGE STEPHEN'
p324
aS'PALKI BHATTACHARYA'
p325
aS'PREETHISH RAJA'
p326
aS'RACHEL ISSAC'
p327
aS'RADHIKA GOSWAMI'
p328
aS'RAGHAV MEHROTRA'
p329
aS'RAHUL RAJKHOWA'
p330
aS'RAJAT MAHESHWARI'
p331
aS'RHEA PAMELA DE SOUZA'
p332
aS'RHEA SUSAN JOHN'
p333
aS'RHEA URVASHI FERNANDES'
p334
aS'ROOPALI LAKHOTIA'
p335
aS'SABINA J SEBASTIAN'
p336
aS'SAMARTH CHAUDHARI'
p337
aS'SAMIRA BOSE'
p338
aS'SANJANA RYNJAH ANAND'
p339
aS'SANSKRITI SINGH'
p340
aS'SARAH NENGJAHAT HAOKIP'
p341
aS'SASHA SAMUEL'
p342
aS'SHIV KUMAR PASWAN'
p343
aS'SIDDHARTH THEODORE'
p344
aS'SUHASINI KRISHNAN'
p345
aS'SYED JAASIRAH SYEDAIN'
p346
aS'SYLVIA LALL'
p347
aS'TARINEE AWASTHI'
p348
aS'THERESA JOHN MANGALATH'
p349
aS'VAIDEHI SINGH'
p350
aS'VATSAL VERMA'
p351
aS'VIKAS BHATI'
p352
aS'VILYO NEGASHANGVA'
p353
aS'VIVEK GEORGE KURIAKOSE'
p354
aS'YUDEN DOMA BHUTIA'
p355
aS'YUVRAJ FRANCIS'
p356
aS'ZAHEEN AHSAN'
p357
assVeconomics
p358
(dp359
I1
(lp360
S'Student Name'
p361
aS'AAKASH GULLA'
p362
aS'ABHILASH BISWAS'
p363
aS'ABHISHEK SINGH KADIAN'
p364
aS'ABIGAIL SAMYUKTHA RABINDRAN'
p365
aS'ALISHUBA MILNA PHILIP'
p366
aS'AMOL MOSES JHA'
p367
aS'ANAND MATHEW'
p368
aS'ANDREW ASHISH LALL'
p369
aS'ANKITA AGARWAL'
p370
aS'ANMOL RATTAN SINGH BAINS'
p371
aS'ANNU CLARA REJATH'
p372
aS'ANUBHAV GUPTA'
p373
aS'ANUBHAV SAGAR TEWATIA'
p374
aS'AVISH SHIMON REVIS'
p375
aS'AWIRAL GUPTA'
p376
aS'BALLA SHINEY SIREESHA'
p377
aS'CHINNGAINENG HAOKIP'
p378
aS'DHAIRYA AGGARWAL'
p379
aS'ELIZABATH HILARIOUS'
p380
aS'H. CHINLIANSANG SIMTE'
p381
aS'IRA LILIAN ABRAHAM'
p382
aS'JASCHARAN SINGH NARULA'
p383
aS'JAYATI BHARADWAJ'
p384
aS'JENNY SUSAN JOHN'
p385
aS'JOSEPH THOMAS'
p386
aS'KUNJ BANSAL'
p387
aS'LAL THANVARA SAILO'
p388
aS'MADHAV BHATIA'
p389
aS'MANU PIUS PANJIKARAN'
p390
aS'NAMRATA SARAH CALEB'
p391
aS'NIKHITHA MARY MATHEW'
p392
aS'NIKITA SINGH'
p393
aS'NIKUNJ GUPTA'
p394
aS'PARINA GANDHI'
p395
aS'PRITI'
p396
aS'PRIYAMVADA SARAF'
p397
aS'RHEA CHACKO'
p398
aS'ROCHAN DAYAL MATHUR'
p399
aS'RUHANI'
p400
aS'SAHIL KAPOOR'
p401
aS'SALONI GUPTA'
p402
aS'SAMSON ANTO KINGSLEY'
p403
aS'SAVERI'
p404
aS'SEERAT KAUR'
p405
aS'SHASHREK AMBARDAR'
p406
aS'SHIKHAR PRINCY CALEB'
p407
aS'SHIVAM SAINI'
p408
aS'SHIVAM TIWARI'
p409
aS'SHREYA GOEL'
p410
aS'SHUBHUTI KHANDELWAL'
p411
aS'SOUMYA MATHEW'
p412
aS'SRISHTI SANNA SATHE'
p413
aS'SRUTHY JACOB'
p414
aS'SURYANSH UPMANYU'
p415
aS'THANGBIAKLIAN NUNTHUK'
p416
aS'VIKAS KUMAR'
p417
aS'YUGANSH MAHAJAN'
p418
asI2
(lp419
S'Student Name'
p420
aS'AARTI ANAND'
p421
aS'ABHISHEK GUPTA'
p422
aS'AKANKSHA CHANDEKAR'
p423
aS'AKSHITA JAIN'
p424
aS'ALISHA GEORGE'
p425
aS'ANIRVAN SAMARA DIVAKERA'
p426
aS'ANUBHAV AGARWAL'
p427
aS'ANUBHUTI'
p428
aS'APURVA TALLURI'
p429
aS'ARCHITA MISRA'
p430
aS'AVIDHA CHAKRABARTI'
p431
aS'BASIL ISAAC'
p432
aS'DARSHANAM JUDE LAMA'
p433
aS'DIVYA  JOSEPH'
p434
aS'ELIZEBETH SUNNY'
p435
aS'FARKHANDA ZAHOOR'
p436
aS'H. GOGOU  SINGSIT'
p437
aS'JUBY JOHN'
p438
aS'KARTIK SAHNI'
p439
aS'KARTIKEY GUPTA'
p440
aS'KUBRA BABA'
p441
aS'LIZ KURIAKOSE'
p442
aS'MADHAVI JHA'
p443
aS'MADULI THAOSEN'
p444
aS'MERIN KOMBAN'
p445
aS'MICHELLE CHERIAN'
p446
aS'MOCHAK SONI'
p447
aS'NANDIL BHATIA'
p448
aS'NICOLE  THOMAS'
p449
aS'NIKIT AGARWAL'
p450
aS'PALLAVI RACHEL  GEORGE'
p451
aS'PRATISHTHA MAMGAIN'
p452
aS'RHEA COLACO'
p453
aS'ROHAN YUNAS'
p454
aS'S. RUTH SIMTE'
p455
aS'SAMIRA SARAH ABRAHAM'
p456
aS'SANHITHA JUGULUM'
p457
aS'SANJULA  HALDER'
p458
aS'SHANIA BHALOTIA'
p459
aS'SHARON ELIZABETH JOSHI'
p460
aS'SHREYA BHARDWAJ'
p461
aS'SHREYA TANDON'
p462
aS'SNEHA KUMAR'
p463
aS'SOUMYAJIT KAR'
p464
aS'TANYA SOOD'
p465
aS'TESSA THOMAS'
p466
aS'THOMAS DOMINIC'
p467
aS'V.M. ADITYA'
p468
aS'VIDYA SHILA SORENG'
p469
asI3
(lp470
S'Student Name'
p471
aS'AAKRITI ARORA'
p472
aS'AASHITA JAIN'
p473
aS'AISHWARYA SINGH'
p474
aS'AKANKSHA BARMAN'
p475
aS'ALISHA MOBIN'
p476
aS'ALOLIKA DE'
p477
aS'AVANI TANDON VIEIRA'
p478
aS'ESTHER LALDONTHAR RVOLNGVL'
p479
aS'HARLEEN BAGGA'
p480
aS'JYOTIS ELIZABETH JACOB'
p481
aS'LALNUNPUIA RENTHLEI'
p482
aS'MANASVINI RAJAN'
p483
aS'MAYANK SHARMA'
p484
aS'MEHVISH'
p485
aS'MILEN MATHEW HOHN'
p486
aS'NANYA SIKKA'
p487
aS'PALLAVI TIRKEY'
p488
aS'PAULOMI KARJEE'
p489
aS'PRASHANSA G M DICKSON'
p490
aS'RENU JACOB'
p491
aS'RIA PRASHAR'
p492
aS'RIYA SHARMA'
p493
aS'ROSEMARY S THARAKAN'
p494
aS'SALINI JOHNSON'
p495
aS'SAMEER DANIEL GARDNER'
p496
aS'SANYA JAIN'
p497
aS'SHIVANI CHANDRA'
p498
aS'SNEHA KHAUND'
p499
aS'SRIJINI MITRA'
p500
aS'SYED FAIZAN'
p501
aS'SYNTHIA WILSON'
p502
aS'TEESHA CHUGH'
p503
aS'VIJAY GOPAL'
p504
assVB.Sc.Programme with chemistry
p505
(dp506
I1
(lp507
S'Student Name'
p508
aS'ADEEL KHAN'
p509
aS'ARINDAM DEBNATH'
p510
aS'ASHANK KUMAR'
p511
aS'ASTHA SHARMA'
p512
aS'DAWN SEBASTIAN'
p513
aS'JOVI VARGHESE M S'
p514
aS'PRAGYA MISHRA'
p515
aS'RAJ KRITI SINHA'
p516
aS'RISHABH NIRALA'
p517
aS'SAMPURNA BASU'
p518
aS'SILAS GURUNG'
p519
aS'SUMEET SIDDHARTH'
p520
aS'THONGAM RAJESH'
p521
aS'VIBHUTI SHARMA'
p522
aS'VIKAS RATHORE'
p523
aS'VIRESHWAR SINGH KHATRI'
p524
asI2
(lp525
S'Student Name'
p526
aS'ABHISHEK JEPH'
p527
aS'ABHISHIKT SANANI'
p528
aS'ANU BABU KARIPPAL'
p529
aS'ARANYA L SAHAY'
p530
aS'AREESA PEERZADA'
p531
aS'ASHIMA JOSE'
p532
aS'ATILA CALISTA JAMIR'
p533
aS'BHUPENDER RATHEE'
p534
aS'BOBAN BABY'
p535
aS'DAVID MASIH'
p536
aS'DEEPA BISHT'
p537
aS'DIKSHA NARANG'
p538
aS'GARIMA THAREJA'
p539
aS'GAURAV CHAUHAN'
p540
aS'GRACE ANN VARKEY'
p541
aS'GRUSHA VICTOR'
p542
aS'HARSHIT DAVID'
p543
aS'INNOCENT MASSEY'
p544
aS'ISHADRITA LAHIRI'
p545
aS'JACOB DOMINIC'
p546
aS'KHEEM SINGH'
p547
aS'LOKESH CHHABRA'
p548
aS'LUKE ROHAN WILLIAMS'
p549
aS'MALIK ABDUL BASIT'
p550
aS'MINAL KARANWAL'
p551
aS'MIRIAM ZORINI  KARTHAK'
p552
aS'MOHAMMAD ADNAN WANI'
p553
aS'MOHD ZAKI HASAN'
p554
aS'NAMITA NOGIA'
p555
aS'NEELIMA V SINGH'
p556
aS'NEHA SARAH GEORGE'
p557
aS'NEIL CHOUDHURY'
p558
aS'NITIN'
p559
aS'PALLAVI BAJPAI'
p560
aS'PRATEEK DANIEL'
p561
aS'PRERNA ANGEL LALL'
p562
aS'RAHUL CHOWDHARY'
p563
aS'RAVI GUPTA'
p564
aS'REBECCA AKSHITA LAL'
p565
aS'REETA'
p566
aS'RHEA MATHEWS'
p567
aS'ROHAN MICHAEL SEBASTINE'
p568
aS'ROHIT KUMAR YADAV'
p569
aS'ROHIT RAJ'
p570
aS'RUCHI SINGH'
p571
aS'SAIF RASHID'
p572
aS'SANA AZIZ'
p573
aS'SANCHIT KATIYAR'
p574
aS'SANTOSH'
p575
aS'SAPNA DEVARWAL'
p576
aS'SHARON SAHAI'
p577
aS'SHIVAM KHILNANI'
p578
aS'SHOUNAK MORRIS'
p579
aS'SHREYA SINHA'
p580
aS'SHRIYANKA SADANGI'
p581
aS'SNEHA SARA FELIX'
p582
aS'SUNAINA DAS'
p583
aS'SURAJ SAMBHARIYA'
p584
aS'TAHIR JEELANI WANI'
p585
aS'TANYA MATHEW'
p586
aS'TUSHAR AGGARWAL'
p587
aS'VAIBHAV SRIVASTAVA'
p588
aS'VAISHNAVI RATHORE'
p589
aS'VIJO POTHAN VARGHESE'
p590
aS'VIRESH PRATAP YADAV'
p591
aS'WANGSHUL RENGVAL ANAL'
p592
aS'YEPETO VITOSHE ROCHILL'
p593
aS'ZAINAB NAWAB'
p594
asI3
(lp595
S'Student Name'
p596
aS'AJIT DESHPANDE'
p597
aS'ANURAG BANERJEE'
p598
aS'ARJOONN SHARMA'
p599
aS'ASHVATTH VERMA'
p600
aS'DEEPAK KUMAR'
p601
aS'DIPTI ROY'
p602
aS'GAGAN MAHAJAN'
p603
aS'ISHAN TANEJA'
p604
aS'JEFFREY MATHEWS'
p605
aS'KANAV SARAF'
p606
aS'MOHIT GAHLAWAT'
p607
aS'PRABHAT CHATTERJEE'
p608
aS'RAGHAV APOORV'
p609
aS'RAJEEV'
p610
aS'REUBEN DAS'
p611
aS'SACHU SANIL'
p612
aS'SAIKET TALUKDAR'
p613
aS'SAJO MON S'
p614
aS'SAMARTH MATHUR'
p615
aS'SANI K YADAV'
p616
aS'SHIVAM DIXIT'
p617
aS'SHUBHAM RUHELA'
p618
aS'SWATI NIGAM'
p619
aS'TUSHAR MISHRA'
p620
assVB.Sc.Programme with computerscience
p621
(dp622
I1
(lp623
S'Student Name'
p624
aS'ANGELA GILHOTRA'
p625
aS'ANMOL RATTAN BHASIN'
p626
aS'ANSHUL ABRAHAM'
p627
aS'ANUBHAV DAVID'
p628
aS'APRATIM CHANDRA SINGH'
p629
aS'AYUSH GUPTA'
p630
aS'HARSHUL KUHAR'
p631
aS'HEMANG S KUMAR'
p632
aS'JHILMIL ANURAG'
p633
aS'JUSTIN JOSEPH'
p634
aS'KANAV SHARMA'
p635
aS'MAMTA YADAV'
p636
aS'MARK VIVIAN DAS'
p637
aS'MEHER TANDON'
p638
aS'MELVIN DAS'
p639
aS'MERCY TOMAR'
p640
aS'MRINALINI GARG'
p641
aS'MRUDANG MATHUR'
p642
aS'NIKHIL HAJELA'
p643
aS'PRANJAL GUPTA'
p644
aS'PULKIT JAIN'
p645
aS'RISHABH SINGH'
p646
aS'RISHIKA ARYA'
p647
aS'SAATVIK WALIA'
p648
aS'SAHIL SAREEN'
p649
aS'SAMEER SAMUEL'
p650
aS'SHIVAM KHANNA'
p651
aS'TEENA THOMAS'
p652
asI3
(lp653
S'Student Name'
p654
aS'AJIT DESHPANDE'
p655
aS'ANURAG BANERJEE'
p656
aS'ARJOONN SHARMA'
p657
aS'ASHVATTH VERMA'
p658
aS'DEEPAK KUMAR'
p659
aS'DIPTI ROY'
p660
aS'GAGAN MAHAJAN'
p661
aS'ISHAN TANEJA'
p662
aS'JEFFREY MATHEWS'
p663
aS'KANAV SARAF'
p664
aS'MOHIT GAHLAWAT'
p665
aS'PRABHAT CHATTERJEE'
p666
aS'RAGHAV APOORV'
p667
aS'RAJEEV'
p668
aS'REUBEN DAS'
p669
aS'SACHU SANIL'
p670
aS'SAIKET TALUKDAR'
p671
aS'SAJO MON S'
p672
aS'SAMARTH MATHUR'
p673
aS'SANI K YADAV'
p674
aS'SHIVAM DIXIT'
p675
aS'SHUBHAM RUHELA'
p676
aS'SWATI NIGAM'
p677
aS'TUSHAR MISHRA'
p678
assVchemistry
p679
(dp680
I1
(lp681
S'Student Name'
p682
aS'AAYUSHI JOSHI'
p683
aS'ALINA ELSA CHACKO'
p684
aS'AMAN CHAUHAN'
p685
aS'ANAY MAJEE'
p686
aS'ANKIT KURIACHAN'
p687
aS'ANMOL AGARWAL'
p688
aS'ANURITA NIDHI HEMROM'
p689
aS'ARUSHI NUNWAL'
p690
aS'ARYAMA SAIKIA'
p691
aS'ASHLIN MARIO SEQUEIRA'
p692
aS'ASITANG VEER SRIVASTAVA'
p693
aS'BHAVESH GUPTA'
p694
aS'DAVIS T DANIEL'
p695
aS'DEEPA KUNDU'
p696
aS'DISHA JAIN'
p697
aS'EVA LANCE'
p698
aS'GAGAN SARAF'
p699
aS'GINCHU MARIAM SUNNY'
p700
aS'GLAISON V CHERIAN'
p701
aS'HARSHITA'
p702
aS'HELAN RAJAN'
p703
aS'HEMANI CHHABRA'
p704
aS'HIMANI GUPTA'
p705
aS'IRENE ELSA ABRAHAM'
p706
aS'JASON THOMAS'
p707
aS'JINCE GEORGE'
p708
aS'KANPATLUNG GANGMEI'
p709
aS'LINU P SAJI'
p710
aS'LUNGSETMANG HANGSHING'
p711
aS'LUNTHANGLIEN CHIRU'
p712
aS'MATHEW MATHEW ALANI JUNIOR'
p713
aS'MONIKA'
p714
aS'NAKUL SHARMA'
p715
aS'NIDHI SHARMA'
p716
aS'NIMISHA ABRAHAM'
p717
aS'NITIKA GARG'
p718
aS'RAGHAV PANGASA'
p719
aS'RAHUL BAREJA'
p720
aS'RAVI SHARMA'
p721
aS'RISHABH PRATAP SINGH'
p722
aS'RIYA GEORGE'
p723
aS'ROSHNY SAJI'
p724
aS'SACHIN SRINIVAS'
p725
aS'SAMADRAM ROBINSON MEETEI'
p726
aS'SANSKRITI BHARDWAJ'
p727
aS'SHIVAM KUMAR'
p728
aS'SHREYA SINHA'
p729
aS'SHRIYA GUMBER'
p730
aS'SHUBAANGI BISHT'
p731
aS'SONALI KHANNA'
p732
aS'STEPHY JOMY'
p733
aS'SUGAM SINGH'
p734
aS'T. AASHISH'
p735
aS'TIMOTHY GEORGE D MONTE'
p736
aS'VAANI - LAL'
p737
asI2
(lp738
S'Student Name'
p739
aS'ABHINAV JOSHI'
p740
aS'ABHISHEK DESHWAL'
p741
aS'ABI THAMPI'
p742
aS'ABIN JOY'
p743
aS'ADITYA GUHA'
p744
aS'AKSHAY THOMAS KURIEN'
p745
aS'AKSHEY KUMAR'
p746
aS'ANI SAMUEL'
p747
aS'ANITA GEMMY FRANCIS'
p748
aS'ANMOL SINGH'
p749
aS'ANU AUGUSTINE'
p750
aS'ANUBHAV NAUTIYAL'
p751
aS'ANURADHA'
p752
aS'ARJAV NAG'
p753
aS'ASHLIN JAMES P'
p754
aS'ASWIN PAUL'
p755
aS'AVLEEN KAUR SAHNI'
p756
aS'BIBIN ABRAHAM'
p757
aS'DINESH KEVIN PINTO'
p758
aS'ENOSH SINHA'
p759
aS'JOHN BIJU'
p760
aS'JULIA ELSA RAJU'
p761
aS'KARUN SAATHVEEG SAM'
p762
aS'KEVIN S VARGHESE'
p763
aS'KHANGEMBAM BOINAO MEITEI'
p764
aS'LEAH ANUSMITA CHRESTIEN'
p765
aS'LEO THOMAS'
p766
aS'MAHAK SACHDEVA'
p767
aS'MALVIKA SRIVASTAVA'
p768
aS'MIHIRA K S'
p769
aS'MITRAJYOTI GHOSH'
p770
aS'MOHAMMAD ISMAT'
p771
aS'MUGDHA KIRAN'
p772
aS'N EASWAR ANAND'
p773
aS'NIKHIL PATHAK'
p774
aS'POUL CHERIAN'
p775
aS'PRACHI SHUKLA'
p776
aS'PRAGYA RASTOGI'
p777
aS'RAKHI ARORA'
p778
aS'ROBIN JOHN'
p779
aS'S INDER PREET'
p780
aS'SAUMYA'
p781
aS'SHILPA'
p782
aS'SHIVANI PANDEY'
p783
aS'SHIVKUMAR RAGHUVANSHI'
p784
aS'SHUDHASHIL BHARTHUAR'
p785
aS'SIDDARTH NINGTHOUJAM'
p786
aS'SILPA MARIYA'
p787
aS'T. MANGBOI SINGSON'
p788
aS'TUHINA SINHA'
p789
aS'TUNEER CHAKRABORTY'
p790
aS'VIVEK CHAUHAN'
p791
asI3
(lp792
S'Student Name'
p793
aS'ABEL THAYIL'
p794
aS'ABHIMANYU DHANDA'
p795
aS'ABHIMANYU YADAV'
p796
aS'ABHISHRI'
p797
aS'ADEELA HAMEED'
p798
aS'ADHIRAJ SHARMA'
p799
aS'AGAPE MARY MAMMEN'
p800
aS'AMAN ROY'
p801
aS'ANIRUDH GUNDHI'
p802
aS'ANJANA JOSEPH'
p803
aS'ANKIT YADAV'
p804
aS'ANKUR DAVID BARROW'
p805
aS'ARSHIA MARIA JACOB'
p806
aS'ASHISH JOSEPH'
p807
aS'CALVIN COLLINS'
p808
aS'CHRISTY PIUS'
p809
aS'DEBAYAN SAHA'
p810
aS'DEEPAK A.V.'
p811
aS'ISHITA MATHUR'
p812
aS'JAISMEEN'
p813
aS'JAISON KOSHY'
p814
aS'JANET JOY'
p815
aS'JUSTRUS MATHEW'
p816
aS'KABASHREE SONOWAL'
p817
aS'KANGHUJAM SUNINDRA SINGH'
p818
aS'KESHAV S KRISHNAN'
p819
aS'KEVIN THOMAS'
p820
aS'KRISHAN DHINGRA'
p821
aS'KRITI BHAYANA'
p822
aS'MAHASWETA BAGCHI'
p823
aS'MARIA KURUVILLA'
p824
aS'MATHEW SEBASTIAN'
p825
aS'MOHAMMAD ISMAT'
p826
aS'NAVKIRAN KAUR'
p827
aS'NAZARENE SIMON'
p828
aS'NISCHCHAY SURI'
p829
aS'NISHANT SHARMA'
p830
aS'PARTH GAIROLA'
p831
aS'PAYAL MITRA'
p832
aS'PRINCE SUNIL THOMAS'
p833
aS'RAHUL'
p834
aS'RAHUL KALHER'
p835
aS'RAHUL MEHRA'
p836
aS'REIJUL SACHDEV'
p837
aS'SABA ZIA HASSAN'
p838
aS'SANGHMINGTHANG SANATE'
p839
aS'SANJEEV KUMAR'
p840
aS'SHALIN JOSE'
p841
aS'SHANKAR'
p842
aS'SHIHRAYIO KAYINA'
p843
aS'SHIVANG GOYAL'
p844
aS'SHUBHAM'
p845
aS'SHUBHAM VARSHNEY'
p846
aS'SOORYA JAMES'
p847
aS'SOUMYA RANJAN DAS'
p848
aS'SRIJAN SEHGAL'
p849
aS'SRISHTI SAINI'
p850
aS'T MANGBOI SINGSON'
p851
aS'TANYA PADHI'
p852
aS'ULLAS R S'
p853
aS'UTSAV KUMAR'
p854
aS'VIJAY KAUSHIK'
p855
aS'VINU THOMAS'
p856
assVsanskrit
p857
(dp858
I1
(lp859
S'Student Name'
p860
aS'ADITYA PATEL'
p861
aS'ANUBHAV CHANDRA'
p862
aS'HARI NARAYAN SANODIA'
p863
aS'PARIDHI KHARE'
p864
aS'RASHMI PRABHA'
p865
aS'SOMESH KASHYAP'
p866
aS'SURYA PRAKASH'
p867
aS'VANI GUPTA'
p868
aS'VARTIK VYAS'
p869
aS'VISHNU KANT'
p870
asI2
(lp871
S'Student Name'
p872
aS'AAROHI SOOD'
p873
aS'ABRAHAM MATHEW AYALLORE'
p874
aS'AKHIL BINNY PHILIP'
p875
aS'ANGELA MASSEY'
p876
aS'ANKIT'
p877
aS'AVIRAL PRAKASH'
p878
aS'BENOY STEPHEN DEVANESAN'
p879
aS'DEEPESH GHOSH'
p880
aS'DHRUV GOPINATH'
p881
aS'DIKSHA GOYAL'
p882
aS'JAYANT S DHARAMJIT'
p883
aS'JORDAN MURIEL'
p884
aS'JYOTI'
p885
aS'KANAV CHANDRA'
p886
aS'KOPAL KAPOOR'
p887
aS'LALRINGZUALA'
p888
aS'MALVIKA SEJWAL'
p889
aS'MARIAM CHERIAN'
p890
aS'MEGHA GUPTA'
p891
aS'MERLYN MARIA ANTONY'
p892
aS'NANNAPANENI JAHNAVI'
p893
aS'NEELAM'
p894
aS'PHAMDOM PRINCE SINGH'
p895
aS'PRAPHUL ROBERT'
p896
aS'REBECCA MARY JOB'
p897
aS'RITIKA NAIR'
p898
aS'ROHAN JOY'
p899
aS'ROHAN MATHUR'
p900
aS'ROMA DIXIT'
p901
aS'SANDEEP FERROW'
p902
aS'SANJAY KUMAR SOREN'
p903
aS'SANJEEV GOLLA'
p904
aS'SHIVANGI SAKLANI'
p905
aS'SHREYA SINHA'
p906
aS'SNEHANSHU SADANGI'
p907
aS'SOHAN BISWAS'
p908
aS'SUSAN ABRAHAM'
p909
aS'THARUN MATHAI THOMAS'
p910
aS'TONY ALEX'
p911
aS'TSERING DOLKAR'
p912
aS'UDIT DAIMA'
p913
aS'VAIBHAV SINGH'
p914
aS'VERTIKA SINGH'
p915
aS'VICTOR GAURAV WASHINGTON'
p916
aS'W ARUBA'
p917
aS'YERUVA MEGHA REDDY'
p918
asI3
(lp919
S'Student Name'
p920
aS'ABHINAV BARUAH'
p921
aS'ABHINAV JHA'
p922
aS'AKASH GOSWAMI'
p923
aS'AKASH VERMA'
p924
aS'AKUNI DOREEN'
p925
aS'ALVINA KATHLEEN VINCENT'
p926
aS'AMAL MOULTRIE DAVID'
p927
aS'ANKIT PARASRAMPURIA'
p928
aS'ANU JOSEPH'
p929
aS'ANU P JOSE'
p930
aS'AYUSHI KATHAYAT'
p931
aS'AYUSHI SOLANKI'
p932
aS'DEEKSHITA SAIKIA'
p933
aS'DEEPISHA SOLANKI'
p934
aS'EDGAR ELIZECHE ARMOA'
p935
aS'GLORIA JOSEPH'
p936
aS'JIBIN JOY'
p937
aS'JOSEPH A ANTONY'
p938
aS'JOSLIN MARIA THOMAS'
p939
aS'JOSY JOHN'
p940
aS'JULIE KOSHY'
p941
aS'MAHARABAM RAJESH SINGH'
p942
aS'MAITREYEE RUDOLA'
p943
aS'NIDHI MATEW'
p944
aS'NITIN GEORGE MALIAKAL'
p945
aS'OSHIN NAIR'
p946
aS'PRABHATIKA VIJ'
p947
aS'PREETI'
p948
aS'PRERNA BOBIN'
p949
aS'PULKIT AGGARWAL'
p950
aS'RAJAT PHILIP'
p951
aS'RAJPAL'
p952
aS'RESHMA GEORGE PALACKAN'
p953
aS'RICHARD MATHEW SUNNY'
p954
aS'RISHEEK RAJ SRIVASTAVA'
p955
aS'SAMBIT MOHANTY'
p956
aS'SANJU SEBASTIAN'
p957
aS'SARVANTA'
p958
aS'SHASTI JAIN'
p959
aS'SHILPA PAULY'
p960
aS'SHRESHTA VENKARAMANAN'
p961
aS'SHUBHAM TRIPATHI'
p962
aS'SIDDHARTH SHANE SHASTRI'
p963
aS'SWATI YADAV'
p964
aS'TANVI BAGGA'
p965
aS'TANYA MARY DUCKWORTH'
p966
aS'TSEWANG THINLAIS'
p967
aS'YASHIKA RANJAN'
p968
assVprogramme
p969
(dp970
I1
(lp971
S'Student Name'
p972
aS'AAYESHA VARMA'
p973
aS'ADITI SANDU'
p974
aS'ADITI SAUMYA BARIK'
p975
aS'ANANYA PATANKAR'
p976
aS'ARMAAN KUCKREJA'
p977
aS'ARUNANSH.B. GOSWAMI'
p978
aS'ASTLE THOMAS'
p979
aS'AYESHA AHMED'
p980
aS'CHANAMBAM GHANACHANDRA SINGH'
p981
aS'CHINGYAISO VASHUM'
p982
aS'CHRISTI THOMAS'
p983
aS'DAANISH YECHURY'
p984
aS'DEVIKA SINGH SHEKHAWAT'
p985
aS'DHRUV SINGHAL'
p986
aS'DILSHER SINGH SANDHU'
p987
aS'ELISHA MINJ'
p988
aS'GAURAV KHAPERWAL'
p989
aS'GAUTAM PATWA'
p990
aS'GLORIA ANESHA ANTHONY'
p991
aS'HARSHAJITH S H'
p992
aS'HISHMA BINTI NAZIR'
p993
aS'INSHA MUSHTAQ'
p994
aS'IRENE REYA SINCLAIR'
p995
aS'JASROOP SINGH WALIA'
p996
aS'JOHNY KD'
p997
aS'JOSEPH DOMINIC'
p998
aS'KUNAL CHATURVEDI'
p999
aS'LAWRENCE JUDE CARDOZA'
p1000
aS'LEAH THOMAS'
p1001
aS'MABEL JOHN'
p1002
aS'MOHD USMAN ZAFAR'
p1003
aS'MUSA SUVARTHA KUMAR'
p1004
aS'MUSKAAN BHAT'
p1005
aS'NEERAJ'
p1006
aS'NEHA KUSHWAHA'
p1007
aS'NIDHI . SINGH'
p1008
aS'NIKHIL M VARGHESE'
p1009
aS'NIRBHAY NITYA NANDA'
p1010
aS'PARO TOMAR'
p1011
aS'PHUNGREIKHAN LONGVAH'
p1012
aS'PRANJAL JAIN'
p1013
aS'RAHUL NUNNA'
p1014
aS'RAJESHWARI CHADHA'
p1015
aS'RIMZHIM TARIYAL'
p1016
aS'RUCHIKA SOIN'
p1017
aS'SALMAN ALI'
p1018
aS'SAMIHA KAPOOR'
p1019
aS'SANCHITA JAIN'
p1020
aS'SANJEEV SIKRI'
p1021
aS'SARTHAK TREVOR DIAS'
p1022
aS'SHALINI KUMARI'
p1023
aS'SHIVAM CHAWLA'
p1024
aS'SHIVANG RATHORE'
p1025
aS'SIMON PETER MALIK'
p1026
aS'SOLOMON STEVE'
p1027
aS'SUCHET VIR SINGH'
p1028
aS'SUMAIYYA'
p1029
aS'SUMI HAMILTON'
p1030
aS'SUNIL KUMAR BAKOLIA'
p1031
aS'SWARNIM BHARDWAJ'
p1032
aS'T BEATRICE NIENGLUNKIM ZOU'
p1033
aS'VINNI MASSEY'
p1034
aS'VIPIN JUNEJA'
p1035
asI2
(lp1036
S'Student Name'
p1037
aS'AAKRITI BATRA'
p1038
aS'AAYUSH GUPTA'
p1039
aS'ABHINAV PARAKH'
p1040
aS'ABRAHAM JOSE'
p1041
aS'ADNAH BRIGHT'
p1042
aS'AKSHAY GUPTA'
p1043
aS'ALARIC MARTINS'
p1044
aS'ALISHA RALPH'
p1045
aS'ANISH  SAHNI'
p1046
aS'ANN  VERGHIS'
p1047
aS'APARTH SACHAN'
p1048
aS'ARADHANA GUPTA'
p1049
aS'ASHIMA JAIN'
p1050
aS'AVANTIKA PAUL'
p1051
aS'AVINASH MATHEWS'
p1052
aS'BHAVYA RASTOGI'
p1053
aS'DAISY MATHEW'
p1054
aS'DAVID BABU'
p1055
aS'DIYA DEVIAH'
p1056
aS'ERA KAUNDAL'
p1057
aS'GRACE  SAM'
p1058
aS'HARSHITA AGARWAL'
p1059
aS'JACKSON MATHEWS'
p1060
aS'KAPIL MUKHI'
p1061
aS'KIRAN HOODA'
p1062
aS'LANUKUMZUK AIER'
p1063
aS'M SUMANA SANJEEV'
p1064
aS'MADHULIKA RAJAWAT'
p1065
aS'MANDEEP BINDRA'
p1066
aS'MANISHA PANT'
p1067
aS'MICHELLE NATHANIEL'
p1068
aS'NAMITHA SADANAND'
p1069
aS'NEERPRIYA BAKSHI'
p1070
aS'NIHARIKA  ALVA'
p1071
aS'NIKITA NAGPAL'
p1072
aS'PARITOSH GUPTA'
p1073
aS'PAUL JOSE PATHIKULANGARA'
p1074
aS'PRAPANJ R'
p1075
aS'RITIKA DUA'
p1076
aS'S. SHREYA'
p1077
aS'SAMUEL AUGUSTIN'
p1078
aS'SANJANA MIMANI'
p1079
aS'SHAGOON MALHOTRA'
p1080
aS'SHANNON SEQUEIRA'
p1081
aS'SHERIN JAMES'
p1082
aS'SHREYA CHANDRA'
p1083
aS'SHWETA SOGANI'
p1084
aS'SNEHA TERESA  KURIAKOSE'
p1085
aS'SOURAV GOEL'
p1086
aS'SURLA -'
p1087
aS'TAVISH TEJAS'
p1088
aS'THAIMEI NEILATHUI'
p1089
aS'UTSAV SAKSENA'
p1090
aS'VIBHOR AGARWAL'
p1091
aS'VIDUSHI JAYATHILAK'
p1092
aS'VINCENT RANGSUNG T  A'
p1093
asI3
(lp1094
S'Student Name'
p1095
aS'AAKASH DEEP NAIN'
p1096
aS'AFLAQ AHMED'
p1097
aS'ANANYA DIWAKANT'
p1098
aS'ANANYA FILBERT'
p1099
aS'ANDRIYAS ANUPAM SILAS'
p1100
aS'ANIKET BAKSY'
p1101
aS'ANISH SOOD'
p1102
aS'ANITHASREE ATHIYAMAN'
p1103
aS'ANMOL SOMANCHI'
p1104
aS'ANSHUL JAIN'
p1105
aS'ANWESH PATNAIK'
p1106
aS'ARANYAK SAIKIA'
p1107
aS'DIVYA KAPUR'
p1108
aS'DIVYA MURUGESAN'
p1109
aS'DIVYA SEBASTIAN'
p1110
aS'EDWIN JOSEPH'
p1111
aS'GANGTE LULUN'
p1112
aS'JATIN KISHORE'
p1113
aS'JENNIFFER MASSEY'
p1114
aS'JENY JOSEPH YALDO'
p1115
aS'KAVYA BAJAJ'
p1116
aS'KAVYA RATHUR'
p1117
aS'KHYATI BHATNAGAR'
p1118
aS'MANIKA TOMAR'
p1119
aS'MANYA MISHRA'
p1120
aS'MARK NIKHIL PAVAMANI'
p1121
aS'MATHEW JOHNSON'
p1122
aS'MELVIN MICHAEL'
p1123
aS'MERLYN ANGELA FERNANDES'
p1124
aS'NAMRATHA AJAI'
p1125
aS'NATASHA GARG'
p1126
aS'NATASHA VARUGHESE'
p1127
aS'NAVODITA BEULAH LAKRA'
p1128
aS'NIDHAANJIT JAIN'
p1129
aS'NIDHI SINGH'
p1130
aS'NIKHIL SINGH'
p1131
aS'OISHEE KUNDU'
p1132
aS'PARAM BENJAMIN ADISESHIAH'
p1133
aS'PRASHANT KUMAR'
p1134
aS'RASHI CHOUDHARI'
p1135
aS'RITIKA GUPTA'
p1136
aS'ROBIN TRAKROO'
p1137
aS'ROUNAK MORRIS'
p1138
aS'ROY MATHEW JOSEPH'
p1139
aS'S L LAWRENCE SIMTE'
p1140
aS'SALONI GOEL'
p1141
aS'SHREYA CHAWLA'
p1142
aS'SHRUTI SETHI'
p1143
aS'SIDDHARTH CHAKRAVORTTY'
p1144
aS'SIDDHARTH DAVID'
p1145
aS'STUTI GARG'
p1146
aS'TAISHA GRACE ANTONY'
p1147
aS'VARUN GUPTA'
p1148
aS'WAROON J MOHAN CHHABRA'
p1149
aS'Y SRI TANYA'
p1150
aS'ZOYA B SINGH'
p1151
assVphysics
p1152
(dp1153
I1
(lp1154
S'Student Name'
p1155
aS'ABHISHEK HITAISHI'
p1156
aS'AGRIMA SINGH'
p1157
aS'AKARSHAN RAO'
p1158
aS'AKSHAYA PAUL'
p1159
aS'ALAN GEORGE'
p1160
aS'ALEX ANTONY'
p1161
aS'ANJALI NAMBUDIRIPAD'
p1162
aS'ANKITA'
p1163
aS'ANN MILIA SEBASTIAN'
p1164
aS'ANUSHTHA'
p1165
aS'ARUN JACOB MATHEW'
p1166
aS'ASHI REBECCA CAMPBELL'
p1167
aS'ASHLY K SEBASTINE'
p1168
aS'ASHNA JOSE'
p1169
aS'CHAITANYA DWIVEDI'
p1170
aS'CHANDNI KAPOOR'
p1171
aS'EMIL MATHEW'
p1172
aS'ESHA SWAROOP'
p1173
aS'FELIX MATHEW'
p1174
aS'ISHITA AGARWAL'
p1175
aS'KSHITIZ ANANT'
p1176
aS'MANISH MEENA'
p1177
aS'MARIYA BENNY'
p1178
aS'MAXX RICHARD RAHMAN'
p1179
aS'MOHAMMAD ATIF JAVED'
p1180
aS'MOHIT KUMAR'
p1181
aS'MOSES - SIMON'
p1182
aS'NAAGESWARAN.M'
p1183
aS'NIKHIL SHARMA'
p1184
aS'NITISH TOM MICHAEL'
p1185
aS'OINAM NEPOLIAN SINGH'
p1186
aS'PRINCE M S'
p1187
aS'R.ALAN RAJ JEFFREY'
p1188
aS'RAHUL'
p1189
aS'RAHUL KUMAR'
p1190
aS'RAHUL SOMASUNDARAM'
p1191
aS'RANADEEP GHOSH DASTIDAR'
p1192
aS'RIJUL SACHDEVA'
p1193
aS'RISHWA MATHUR'
p1194
aS'ROBIN THOMAS'
p1195
aS'ROHAN MATHEW'
p1196
aS'S SARAH'
p1197
aS'SAJAY SUNNY MATHEW'
p1198
aS'SAKSHI KHAIWAL'
p1199
aS'SAMRIDHI'
p1200
aS'SAURABH KUMAR'
p1201
aS'SHIBASHISH DEVIDUTTA JAYDEV'
p1202
aS'SHIDHANTA SEN'
p1203
aS'SHIVANGI BHATTACHARYYA'
p1204
aS'SHUBHAM BANSAL'
p1205
aS'SONALI JOHN'
p1206
aS'SOURYADEEP SAHA'
p1207
aS'STEVEN JOB THOMAS'
p1208
aS'SUKRITI VERMA'
p1209
aS'SUSHMITA LAL'
p1210
aS'SUVEER GARG'
p1211
aS'TAMANNA'
p1212
aS'TIENTE RENGNEICHUONG KOIRENG'
p1213
aS'VAIBHAV CHOUDHARY'
p1214
aS'VALENTINA DEVI MAIBRAM'
p1215
aS'YASHIKA SETHI'
p1216
asI3
(lp1217
S'Student Name'
p1218
aS'AANCHAL'
p1219
aS'ADITENDRA SINGH'
p1220
aS'ANANYA MISHRA'
p1221
aS'ANJALI'
p1222
aS'ATIMA  SHAHI'
p1223
aS'AVNIKA JAIN'
p1224
aS'AYUSH RAI'
p1225
aS'CHANDRIMA ATTRI'
p1226
aS'DIVYA KUNDU'
p1227
aS'GAURISH KANT'
p1228
aS'HARMAN PREET KAUR JAGGI'
p1229
aS'JORDAN NAMCHU'
p1230
aS'KARAN GUPTA'
p1231
aS'KOPAL DIXIT'
p1232
aS'MIHIR KUMAR'
p1233
aS'MITALI POOVAYYA'
p1234
aS'MUKUND MARODIA'
p1235
aS'NIKITA GUPTA'
p1236
aS'PALAK AGARWAL'
p1237
aS'PAPEETA'
p1238
aS'PRAGATI MISHRA'
p1239
aS'PRAHARSH MOHANLAL PATEL'
p1240
aS'PRAKHAR SRIVASTAVA'
p1241
aS'PRIYA ARORA'
p1242
aS'RAGHAV DAHUJA'
p1243
aS'RAHUL DEV'
p1244
aS'RIBHAV PANDE'
p1245
aS'SACHIN YADAV'
p1246
aS'SARTHAK SETH'
p1247
aS'SHOURYA AWASTHI'
p1248
aS'SONALI VERMA'
p1249
aS'SONU'
p1250
aS'SUDHANSHU'
p1251
aS'SUKRIT JOSHI'
p1252
aS'TANYA SHARMA'
p1253
aS'TARUN KUMAR SHARMA'
p1254
aS'VARUN SHUKLA'
p1255
assVhistory
p1256
(dp1257
I1
(lp1258
S'Student Name'
p1259
aS'A. GAUTAM SINGH'
p1260
aS'ABHINAYA H'
p1261
aS'ADITI CHAUDHARY'
p1262
aS'ADITI SINGH'
p1263
aS'ADRIAN DCRUZ'
p1264
aS'AKSHAT BAGLA'
p1265
aS'AKUL GURTU'
p1266
aS'ALPHONSA TOM'
p1267
aS'ALVIN DURAI SINGH'
p1268
aS'ANKITA SRIVASTAVA'
p1269
aS'ANMOL SARAH SANDHU'
p1270
aS'ANUKRITI REKHAL'
p1271
aS'ANURADHA KAKATI'
p1272
aS'ANWESHA IMON'
p1273
aS'ASHISH ROSE'
p1274
aS'AVISHA PHAMSHANU NGORUW ICAN'
p1275
aS'AYUSH DOGRA'
p1276
aS'BHARTI'
p1277
aS'BRINDA KUMAR'
p1278
aS'CHAKRAPANI SINGH RATHORE'
p1279
aS'DEVYANI'
p1280
aS'DIPIKA TITUS'
p1281
aS'DIYA DAVIS'
p1282
aS'EDGAR KNYVET DIENGDOH PYRTUH'
p1283
aS'FARAZ HAIDER'
p1284
aS'FRANKSON GANGMEI'
p1285
aS'JATIN'
p1286
aS'KALYANI S'
p1287
aS'KAVERI ANNA MODAYIL'
p1288
aS'KELSANG CHOEKI NAMGYAL'
p1289
aS'KEVIN SOLOMON MISSAL'
p1290
aS'KIRAN BISHT'
p1291
aS'LILIKA ZHIMOMI'
p1292
aS'MARY JUGUNU'
p1293
aS'MISHEL MOHAN'
p1294
aS'MOHAMMED ZANSKAR DANISH'
p1295
aS'MUNGSHING LEISAN'
p1296
aS'NAVONEEL RAY'
p1297
aS'NETHAJI V N'
p1298
aS'NIALA CARVALHO'
p1299
aS'NISHANT SINGH'
p1300
aS'PARUL TIWARI'
p1301
aS'PRATEEK LEVI'
p1302
aS'PRITHVIRAJ CHRISTOPHER ANDREWS'
p1303
aS'RAHUL GUPTA'
p1304
aS'REYNA SHRUTI A'
p1305
aS'RHEA DAVID'
p1306
aS'ROHAN SHANE PEREIRA'
p1307
aS'ROHAN SINGH'
p1308
aS'S SANJEEV MERVYN PETER'
p1309
aS'SABRINA MATHEWS'
p1310
aS'SAHAR MUNJAL'
p1311
aS'SARAH CHAUHAN'
p1312
aS'SHANAYA SHOBITA SCOTT'
p1313
aS'SHIVANGI NIGAM'
p1314
aS'SHIVANI KASUMRA'
p1315
aS'SHIVARNIM AJAY'
p1316
aS'SHRUTI SINGH'
p1317
aS'SRISHTI GAUTAM'
p1318
aS'SUSY GEORGE'
p1319
aS'TEJAS RAJKOTIA LUTHRA'
p1320
aS'THERES JOIS PATTERY'
p1321
aS'URMILA VISHNOI'
p1322
aS'URVI KHAITAN'
p1323
aS'VICKEY KUMAR'
p1324
aS'VIKRAM GREWAL'
p1325
aS'VIRAJ GUPTA'
p1326
aS'ZEHRA KAZMI'
p1327
asI2
(lp1328
S'Student Name'
p1329
aS'AKHIL THOMAS'
p1330
aS'ANGELA MARY ISSAC'
p1331
aS'ARKAJ KUMAR'
p1332
aS'JOSEPH M JACOB'
p1333
aS'RIDDHIMA YADAV'
p1334
aS'RIYA SARIN'
p1335
aS'SANYA MADAN'
p1336
aS'SARAH VAHHOIHNIANG'
p1337
aS'SWAPNIL'
p1338
aS'TAMJEED KHAN'
p1339
aS'WILSON SAMUEL'
p1340
aS'ZOHRA SALIH'
p1341
asI3
(lp1342
S'Student Name'
p1343
aS'ANNABEL MATHEW'
p1344
aS'DEBJIT KUMAR ROY'
p1345
aS'DEVANSH PINANK MEHTA'
p1346
aS'ESTHER SANGNEILHING HAOKIP'
p1347
aS'IMALI HESSO'
p1348
aS'ISHAAN SHARMA'
p1349
aS'JOMMY JOSE'
p1350
aS'KARAN SUBARNA'
p1351
aS'RICHARD SHALLAM'
p1352
aS'RUKUM SATYAARTH'
p1353
aS'SHIVENDRA SINGH'
p1354
aS'SURAJ SHARMA CHURAI'
p1355
aS'TARA ALIYA KESAVAN'
p1356
aS'URVI P VORA'
p1357
ass.