(dp0
VI YEAR B. A. PROGRAMME
p1
(lp2
S'Student Name'
p3
aS'AAYESHA VARMA'
p4
aS'ADITI SANDU'
p5
aS'ADITI SAUMYA BARIK'
p6
aS'ANANYA PATANKAR'
p7
aS'ARMAAN KUCKREJA'
p8
aS'ARUNANSH.B. GOSWAMI'
p9
aS'ASTLE THOMAS'
p10
aS'AYESHA AHMED'
p11
aS'CHANAMBAM GHANACHANDRA SINGH'
p12
aS'CHINGYAISO VASHUM'
p13
aS'CHRISTI THOMAS'
p14
aS'DAANISH YECHURY'
p15
aS'DEVIKA SINGH SHEKHAWAT'
p16
aS'DHRUV SINGHAL'
p17
aS'DILSHER SINGH SANDHU'
p18
aS'ELISHA MINJ'
p19
aS'GAURAV KHAPERWAL'
p20
aS'GAUTAM PATWA'
p21
aS'GLORIA ANESHA ANTHONY'
p22
aS'HARSHAJITH S H'
p23
aS'HISHMA BINTI NAZIR'
p24
aS'INSHA MUSHTAQ'
p25
aS'IRENE REYA SINCLAIR'
p26
aS'JASROOP SINGH WALIA'
p27
aS'JOHNY KD'
p28
aS'JOSEPH DOMINIC'
p29
aS'KUNAL CHATURVEDI'
p30
aS'LAWRENCE JUDE CARDOZA'
p31
aS'LEAH THOMAS'
p32
aS'MABEL JOHN'
p33
aS'MOHD USMAN ZAFAR'
p34
aS'MUSA SUVARTHA KUMAR'
p35
aS'MUSKAAN BHAT'
p36
aS'NEERAJ'
p37
aS'NEHA KUSHWAHA'
p38
aS'NIDHI . SINGH'
p39
aS'NIKHIL M VARGHESE'
p40
aS'NIRBHAY NITYA NANDA'
p41
aS'PARO TOMAR'
p42
aS'PHUNGREIKHAN LONGVAH'
p43
aS'PRANJAL JAIN'
p44
aS'RAHUL NUNNA'
p45
aS'RAJESHWARI CHADHA'
p46
aS'RIMZHIM TARIYAL'
p47
aS'RUCHIKA SOIN'
p48
aS'SALMAN ALI'
p49
aS'SAMIHA KAPOOR'
p50
aS'SANCHITA JAIN'
p51
aS'SANJEEV SIKRI'
p52
aS'SARTHAK TREVOR DIAS'
p53
aS'SHALINI KUMARI'
p54
aS'SHIVAM CHAWLA'
p55
aS'SHIVANG RATHORE'
p56
aS'SIMON PETER MALIK'
p57
aS'SOLOMON STEVE'
p58
aS'SUCHET VIR SINGH'
p59
aS'SUMAIYYA'
p60
aS'SUMI HAMILTON'
p61
aS'SUNIL KUMAR BAKOLIA'
p62
aS'SWARNIM BHARDWAJ'
p63
aS'T BEATRICE NIENGLUNKIM ZOU'
p64
aS'VINNI MASSEY'
p65
aS'VIPIN JUNEJA'
p66
asVIII YEAR B. A. HONOURS HISTORY
p67
(lp68
S'Student Name'
p69
aS'ANNABEL MATHEW'
p70
aS'DEBJIT KUMAR ROY'
p71
aS'DEVANSH PINANK MEHTA'
p72
aS'ESTHER SANGNEILHING HAOKIP'
p73
aS'IMALI HESSO'
p74
aS'ISHAAN SHARMA'
p75
aS'JOMMY JOSE'
p76
aS'KARAN SUBARNA'
p77
aS'RICHARD SHALLAM'
p78
aS'RUKUM SATYAARTH'
p79
aS'SHIVENDRA SINGH'
p80
aS'SURAJ SHARMA CHURAI'
p81
aS'TARA ALIYA KESAVAN'
p82
aS'URVI P VORA'
p83
asVIII YEAR B. A. PROGRAMME
p84
(lp85
S'Student Name'
p86
aS'AAKASH DEEP NAIN'
p87
aS'AFLAQ AHMED'
p88
aS'ANANYA DIWAKANT'
p89
aS'ANANYA FILBERT'
p90
aS'ANDRIYAS ANUPAM SILAS'
p91
aS'ANIKET BAKSY'
p92
aS'ANISH SOOD'
p93
aS'ANITHASREE ATHIYAMAN'
p94
aS'ANMOL SOMANCHI'
p95
aS'ANSHUL JAIN'
p96
aS'ANWESH PATNAIK'
p97
aS'ARANYAK SAIKIA'
p98
aS'DIVYA KAPUR'
p99
aS'DIVYA MURUGESAN'
p100
aS'DIVYA SEBASTIAN'
p101
aS'EDWIN JOSEPH'
p102
aS'GANGTE LULUN'
p103
aS'JATIN KISHORE'
p104
aS'JENNIFFER MASSEY'
p105
aS'JENY JOSEPH YALDO'
p106
aS'KAVYA BAJAJ'
p107
aS'KAVYA RATHUR'
p108
aS'KHYATI BHATNAGAR'
p109
aS'MANIKA TOMAR'
p110
aS'MANYA MISHRA'
p111
aS'MARK NIKHIL PAVAMANI'
p112
aS'MATHEW JOHNSON'
p113
aS'MELVIN MICHAEL'
p114
aS'MERLYN ANGELA FERNANDES'
p115
aS'NAMRATHA AJAI'
p116
aS'NATASHA GARG'
p117
aS'NATASHA VARUGHESE'
p118
aS'NAVODITA BEULAH LAKRA'
p119
aS'NIDHAANJIT JAIN'
p120
aS'NIDHI SINGH'
p121
aS'NIKHIL SINGH'
p122
aS'OISHEE KUNDU'
p123
aS'PARAM BENJAMIN ADISESHIAH'
p124
aS'PRASHANT KUMAR'
p125
aS'RASHI CHOUDHARI'
p126
aS'RITIKA GUPTA'
p127
aS'ROBIN TRAKROO'
p128
aS'ROUNAK MORRIS'
p129
aS'ROY MATHEW JOSEPH'
p130
aS'S L LAWRENCE SIMTE'
p131
aS'SALONI GOEL'
p132
aS'SHREYA CHAWLA'
p133
aS'SHRUTI SETHI'
p134
aS'SIDDHARTH CHAKRAVORTTY'
p135
aS'SIDDHARTH DAVID'
p136
aS'STUTI GARG'
p137
aS'TAISHA GRACE ANTONY'
p138
aS'VARUN GUPTA'
p139
aS'WAROON J MOHAN CHHABRA'
p140
aS'Y SRI TANYA'
p141
aS'ZOYA B SINGH'
p142
asVIII YEAR B. A. HONOURS ECONOMICS
p143
(lp144
S'Student Name'
p145
aS'AAKRITI ARORA'
p146
aS'AASHITA JAIN'
p147
aS'AISHWARYA SINGH'
p148
aS'AKANKSHA BARMAN'
p149
aS'ALISHA MOBIN'
p150
aS'ALOLIKA DE'
p151
aS'AVANI TANDON VIEIRA'
p152
aS'ESTHER LALDONTHAR RVOLNGVL'
p153
aS'HARLEEN BAGGA'
p154
aS'JYOTIS ELIZABETH JACOB'
p155
aS'LALNUNPUIA RENTHLEI'
p156
aS'MANASVINI RAJAN'
p157
aS'MAYANK SHARMA'
p158
aS'MEHVISH'
p159
aS'MILEN MATHEW HOHN'
p160
aS'NANYA SIKKA'
p161
aS'PALLAVI TIRKEY'
p162
aS'PAULOMI KARJEE'
p163
aS'PRASHANSA G M DICKSON'
p164
aS'RENU JACOB'
p165
aS'RIA PRASHAR'
p166
aS'RIYA SHARMA'
p167
aS'ROSEMARY S THARAKAN'
p168
aS'SALINI JOHNSON'
p169
aS'SAMEER DANIEL GARDNER'
p170
aS'SANYA JAIN'
p171
aS'SHIVANI CHANDRA'
p172
aS'SNEHA KHAUND'
p173
aS'SRIJINI MITRA'
p174
aS'SYED FAIZAN'
p175
aS'SYNTHIA WILSON'
p176
aS'TEESHA CHUGH'
p177
aS'VIJAY GOPAL'
p178
asVI YEAR PHILOSOPHY
p179
(lp180
S'Student Name'
p181
aS'ADITYA SRINIVASAN'
p182
aS'AMBIKA MALIK'
p183
aS'KETHOZHAVI LIEGISE'
p184
aS'LUDIA SARA SUNNY'
p185
aS'NAMRATA NARULA'
p186
aS'RAJASVI GANDHI'
p187
aS'ROHAN THOMAS'
p188
aS'SANJANA SRIDHAR'
p189
aS'SIDDHARTH SINGH'
p190
aS'SUNAYANA KHANDELWAL'
p191
aS'UDEPRATAAP SINGH SANDHU'
p192
aS'VINEET GEORGE'
p193
asVII YEAR B. SC. PROG. CHEMISTRY
p194
(lp195
S'Student Name'
p196
aS'ABHISHEK JEPH'
p197
aS'ABHISHIKT SANANI'
p198
aS'ANU BABU KARIPPAL'
p199
aS'ARANYA L SAHAY'
p200
aS'AREESA PEERZADA'
p201
aS'ASHIMA JOSE'
p202
aS'ATILA CALISTA JAMIR'
p203
aS'BHUPENDER RATHEE'
p204
aS'BOBAN BABY'
p205
aS'DAVID MASIH'
p206
aS'DEEPA BISHT'
p207
aS'DIKSHA NARANG'
p208
aS'GARIMA THAREJA'
p209
aS'GAURAV CHAUHAN'
p210
aS'GRACE ANN VARKEY'
p211
aS'GRUSHA VICTOR'
p212
aS'HARSHIT DAVID'
p213
aS'INNOCENT MASSEY'
p214
aS'ISHADRITA LAHIRI'
p215
aS'JACOB DOMINIC'
p216
aS'KHEEM SINGH'
p217
aS'LOKESH CHHABRA'
p218
aS'LUKE ROHAN WILLIAMS'
p219
aS'MALIK ABDUL BASIT'
p220
aS'MINAL KARANWAL'
p221
aS'MIRIAM ZORINI  KARTHAK'
p222
aS'MOHAMMAD ADNAN WANI'
p223
aS'MOHD ZAKI HASAN'
p224
aS'NAMITA NOGIA'
p225
aS'NEELIMA V SINGH'
p226
aS'NEHA SARAH GEORGE'
p227
aS'NEIL CHOUDHURY'
p228
aS'NITIN'
p229
aS'PALLAVI BAJPAI'
p230
aS'PRATEEK DANIEL'
p231
aS'PRERNA ANGEL LALL'
p232
aS'RAHUL CHOWDHARY'
p233
aS'RAVI GUPTA'
p234
aS'REBECCA AKSHITA LAL'
p235
aS'REETA'
p236
aS'RHEA MATHEWS'
p237
aS'ROHAN MICHAEL SEBASTINE'
p238
aS'ROHIT KUMAR YADAV'
p239
aS'ROHIT RAJ'
p240
aS'RUCHI SINGH'
p241
aS'SAIF RASHID'
p242
aS'SANA AZIZ'
p243
aS'SANCHIT KATIYAR'
p244
aS'SANTOSH'
p245
aS'SAPNA DEVARWAL'
p246
aS'SHARON SAHAI'
p247
aS'SHIVAM KHILNANI'
p248
aS'SHOUNAK MORRIS'
p249
aS'SHREYA SINHA'
p250
aS'SHRIYANKA SADANGI'
p251
aS'SNEHA SARA FELIX'
p252
aS'SUNAINA DAS'
p253
aS'SURAJ SAMBHARIYA'
p254
aS'TAHIR JEELANI WANI'
p255
aS'TANYA MATHEW'
p256
aS'TUSHAR AGGARWAL'
p257
aS'VAIBHAV SRIVASTAVA'
p258
aS'VAISHNAVI RATHORE'
p259
aS'VIJO POTHAN VARGHESE'
p260
aS'VIRESH PRATAP YADAV'
p261
aS'WANGSHUL RENGVAL ANAL'
p262
aS'YEPETO VITOSHE ROCHILL'
p263
aS'ZAINAB NAWAB'
p264
asVII YEAR B. A. HONOURS ECONOMICS -SEC B
p265
(lp266
S'Student Name'
p267
aS'AARON JACOB ALEX'
p268
aS'AIMAN HASHMI'
p269
aS'ALVEENA TARIQ'
p270
aS'AMITRAJEET MUKHERJEE'
p271
aS'ANJANA MARY KINDO'
p272
aS'ANSILA MARIAM THOMAS'
p273
aS'ARADHANA MARY MATHEWS'
p274
aS'GRACIA ODILE JUSTIN'
p275
aS'JASLEEN KAUR'
p276
aS'JUNNY CHIINNEIJUN'
p277
aS'KARISHMA JAYAPAUL'
p278
aS'MADHUMITA SARKAR'
p279
aS'MANSI WILKINSON'
p280
aS'MONIKA PAREEK'
p281
aS'NANG DAISY MOWKE'
p282
aS'PRATEEK PAUL'
p283
aS'RACHEL FRANCIS'
p284
aS'RADHIKA SINGH'
p285
aS'REUBEN JACOB'
p286
aS'SANJANA WILSON'
p287
aS'SHAYEREE CHAKRABORTY'
p288
aS'SHIFA CH NICHOLSON'
p289
aS'SHREYASHI ROY'
p290
aS'SIMRAH MEHMOOD'
p291
aS'SOHORPEM KAZINGMEI'
p292
aS'SPRIHA MISRA'
p293
aS'SUMAIRA NAWAZ'
p294
aS'TANYA KANT'
p295
aS'THAYEEKRISHNA K K'
p296
aS'VERONICA KAMEI'
p297
aS'VIRAJ CHRISTOPHER EGBERT'
p298
aS'ZORAVAR SINGH JAMWAL'
p299
asVI YEAR HISTORY
p300
(lp301
S'Student Name'
p302
aS'A. GAUTAM SINGH'
p303
aS'ABHINAYA H'
p304
aS'ADITI CHAUDHARY'
p305
aS'ADITI SINGH'
p306
aS'ADRIAN DCRUZ'
p307
aS'AKSHAT BAGLA'
p308
aS'AKUL GURTU'
p309
aS'ALPHONSA TOM'
p310
aS'ALVIN DURAI SINGH'
p311
aS'ANKITA SRIVASTAVA'
p312
aS'ANMOL SARAH SANDHU'
p313
aS'ANUKRITI REKHAL'
p314
aS'ANURADHA KAKATI'
p315
aS'ANWESHA IMON'
p316
aS'ASHISH ROSE'
p317
aS'AVISHA PHAMSHANU NGORUW ICAN'
p318
aS'AYUSH DOGRA'
p319
aS'BHARTI'
p320
aS'BRINDA KUMAR'
p321
aS'CHAKRAPANI SINGH RATHORE'
p322
aS'DEVYANI'
p323
aS'DIPIKA TITUS'
p324
aS'DIYA DAVIS'
p325
aS'EDGAR KNYVET DIENGDOH PYRTUH'
p326
aS'FARAZ HAIDER'
p327
aS'FRANKSON GANGMEI'
p328
aS'JATIN'
p329
aS'KALYANI S'
p330
aS'KAVERI ANNA MODAYIL'
p331
aS'KELSANG CHOEKI NAMGYAL'
p332
aS'KEVIN SOLOMON MISSAL'
p333
aS'KIRAN BISHT'
p334
aS'LILIKA ZHIMOMI'
p335
aS'MARY JUGUNU'
p336
aS'MISHEL MOHAN'
p337
aS'MOHAMMED ZANSKAR DANISH'
p338
aS'MUNGSHING LEISAN'
p339
aS'NAVONEEL RAY'
p340
aS'NETHAJI V N'
p341
aS'NIALA CARVALHO'
p342
aS'NISHANT SINGH'
p343
aS'PARUL TIWARI'
p344
aS'PRATEEK LEVI'
p345
aS'PRITHVIRAJ CHRISTOPHER ANDREWS'
p346
aS'RAHUL GUPTA'
p347
aS'REYNA SHRUTI A'
p348
aS'RHEA DAVID'
p349
aS'ROHAN SHANE PEREIRA'
p350
aS'ROHAN SINGH'
p351
aS'S SANJEEV MERVYN PETER'
p352
aS'SABRINA MATHEWS'
p353
aS'SAHAR MUNJAL'
p354
aS'SARAH CHAUHAN'
p355
aS'SHANAYA SHOBITA SCOTT'
p356
aS'SHIVANGI NIGAM'
p357
aS'SHIVANI KASUMRA'
p358
aS'SHIVARNIM AJAY'
p359
aS'SHRUTI SINGH'
p360
aS'SRISHTI GAUTAM'
p361
aS'SUSY GEORGE'
p362
aS'TEJAS RAJKOTIA LUTHRA'
p363
aS'THERES JOIS PATTERY'
p364
aS'URMILA VISHNOI'
p365
aS'URVI KHAITAN'
p366
aS'VICKEY KUMAR'
p367
aS'VIKRAM GREWAL'
p368
aS'VIRAJ GUPTA'
p369
aS'ZEHRA KAZMI'
p370
asVII YEAR B. A. HONOURS ECONOMICS -SEC A
p371
(lp372
S'Student Name'
p373
aS'AARTI ANAND'
p374
aS'ABHISHEK GUPTA'
p375
aS'AKANKSHA CHANDEKAR'
p376
aS'AKSHITA JAIN'
p377
aS'ALISHA GEORGE'
p378
aS'ANIRVAN SAMARA DIVAKERA'
p379
aS'ANUBHAV AGARWAL'
p380
aS'ANUBHUTI'
p381
aS'APURVA TALLURI'
p382
aS'ARCHITA MISRA'
p383
aS'AVIDHA CHAKRABARTI'
p384
aS'BASIL ISAAC'
p385
aS'DARSHANAM JUDE LAMA'
p386
aS'DIVYA  JOSEPH'
p387
aS'ELIZEBETH SUNNY'
p388
aS'FARKHANDA ZAHOOR'
p389
aS'H. GOGOU  SINGSIT'
p390
aS'JUBY JOHN'
p391
aS'KARTIK SAHNI'
p392
aS'KARTIKEY GUPTA'
p393
aS'KUBRA BABA'
p394
aS'LIZ KURIAKOSE'
p395
aS'MADHAVI JHA'
p396
aS'MADULI THAOSEN'
p397
aS'MERIN KOMBAN'
p398
aS'MICHELLE CHERIAN'
p399
aS'MOCHAK SONI'
p400
aS'NANDIL BHATIA'
p401
aS'NICOLE  THOMAS'
p402
aS'NIKIT AGARWAL'
p403
aS'PALLAVI RACHEL  GEORGE'
p404
aS'PRATISHTHA MAMGAIN'
p405
aS'RHEA COLACO'
p406
aS'ROHAN YUNAS'
p407
aS'S. RUTH SIMTE'
p408
aS'SAMIRA SARAH ABRAHAM'
p409
aS'SANHITHA JUGULUM'
p410
aS'SANJULA  HALDER'
p411
aS'SHANIA BHALOTIA'
p412
aS'SHARON ELIZABETH JOSHI'
p413
aS'SHREYA BHARDWAJ'
p414
aS'SHREYA TANDON'
p415
aS'SNEHA KUMAR'
p416
aS'SOUMYAJIT KAR'
p417
aS'TANYA SOOD'
p418
aS'TESSA THOMAS'
p419
aS'THOMAS DOMINIC'
p420
aS'V.M. ADITYA'
p421
aS'VIDYA SHILA SORENG'
p422
asVIII YEAR B. SC. PROG. COMPUTER SCIENCE
p423
(lp424
S'Student Name'
p425
aS'AJIT DESHPANDE'
p426
aS'ANURAG BANERJEE'
p427
aS'ARJOONN SHARMA'
p428
aS'ASHVATTH VERMA'
p429
aS'DEEPAK KUMAR'
p430
aS'DIPTI ROY'
p431
aS'GAGAN MAHAJAN'
p432
aS'ISHAN TANEJA'
p433
aS'JEFFREY MATHEWS'
p434
aS'KANAV SARAF'
p435
aS'MOHIT GAHLAWAT'
p436
aS'PRABHAT CHATTERJEE'
p437
aS'RAGHAV APOORV'
p438
aS'RAJEEV'
p439
aS'REUBEN DAS'
p440
aS'SACHU SANIL'
p441
aS'SAIKET TALUKDAR'
p442
aS'SAJO MON S'
p443
aS'SAMARTH MATHUR'
p444
aS'SANI K YADAV'
p445
aS'SHIVAM DIXIT'
p446
aS'SHUBHAM RUHELA'
p447
aS'SWATI NIGAM'
p448
aS'TUSHAR MISHRA'
p449
asVIII YEAR B. A. HONOURS SANSKRIT
p450
(lp451
S'Student Name'
p452
aS'ABHINAV BARUAH'
p453
aS'ABHINAV JHA'
p454
aS'AKASH GOSWAMI'
p455
aS'AKASH VERMA'
p456
aS'AKUNI DOREEN'
p457
aS'ALVINA KATHLEEN VINCENT'
p458
aS'AMAL MOULTRIE DAVID'
p459
aS'ANKIT PARASRAMPURIA'
p460
aS'ANU JOSEPH'
p461
aS'ANU P JOSE'
p462
aS'AYUSHI KATHAYAT'
p463
aS'AYUSHI SOLANKI'
p464
aS'DEEKSHITA SAIKIA'
p465
aS'DEEPISHA SOLANKI'
p466
aS'EDGAR ELIZECHE ARMOA'
p467
aS'GLORIA JOSEPH'
p468
aS'JIBIN JOY'
p469
aS'JOSEPH A ANTONY'
p470
aS'JOSLIN MARIA THOMAS'
p471
aS'JOSY JOHN'
p472
aS'JULIE KOSHY'
p473
aS'MAHARABAM RAJESH SINGH'
p474
aS'MAITREYEE RUDOLA'
p475
aS'NIDHI MATEW'
p476
aS'NITIN GEORGE MALIAKAL'
p477
aS'OSHIN NAIR'
p478
aS'PRABHATIKA VIJ'
p479
aS'PREETI'
p480
aS'PRERNA BOBIN'
p481
aS'PULKIT AGGARWAL'
p482
aS'RAJAT PHILIP'
p483
aS'RAJPAL'
p484
aS'RESHMA GEORGE PALACKAN'
p485
aS'RICHARD MATHEW SUNNY'
p486
aS'RISHEEK RAJ SRIVASTAVA'
p487
aS'SAMBIT MOHANTY'
p488
aS'SANJU SEBASTIAN'
p489
aS'SARVANTA'
p490
aS'SHASTI JAIN'
p491
aS'SHILPA PAULY'
p492
aS'SHRESHTA VENKARAMANAN'
p493
aS'SHUBHAM TRIPATHI'
p494
aS'SIDDHARTH SHANE SHASTRI'
p495
aS'SWATI YADAV'
p496
aS'TANVI BAGGA'
p497
aS'TANYA MARY DUCKWORTH'
p498
aS'TSEWANG THINLAIS'
p499
aS'YASHIKA RANJAN'
p500
asVI YEAR SANSKRIT
p501
(lp502
S'Student Name'
p503
aS'ADITYA PATEL'
p504
aS'ANUBHAV CHANDRA'
p505
aS'HARI NARAYAN SANODIA'
p506
aS'PARIDHI KHARE'
p507
aS'RASHMI PRABHA'
p508
aS'SOMESH KASHYAP'
p509
aS'SURYA PRAKASH'
p510
aS'VANI GUPTA'
p511
aS'VARTIK VYAS'
p512
aS'VISHNU KANT'
p513
asVII YEAR B. SC. HONOURS CHEMISTRY
p514
(lp515
S'Student Name'
p516
aS'ABHINAV JOSHI'
p517
aS'ABHISHEK DESHWAL'
p518
aS'ABI THAMPI'
p519
aS'ABIN JOY'
p520
aS'ADITYA GUHA'
p521
aS'AKSHAY THOMAS KURIEN'
p522
aS'AKSHEY KUMAR'
p523
aS'ANI SAMUEL'
p524
aS'ANITA GEMMY FRANCIS'
p525
aS'ANMOL SINGH'
p526
aS'ANU AUGUSTINE'
p527
aS'ANUBHAV NAUTIYAL'
p528
aS'ANURADHA'
p529
aS'ARJAV NAG'
p530
aS'ASHLIN JAMES P'
p531
aS'ASWIN PAUL'
p532
aS'AVLEEN KAUR SAHNI'
p533
aS'BIBIN ABRAHAM'
p534
aS'DINESH KEVIN PINTO'
p535
aS'ENOSH SINHA'
p536
aS'JOHN BIJU'
p537
aS'JULIA ELSA RAJU'
p538
aS'KARUN SAATHVEEG SAM'
p539
aS'KEVIN S VARGHESE'
p540
aS'KHANGEMBAM BOINAO MEITEI'
p541
aS'LEAH ANUSMITA CHRESTIEN'
p542
aS'LEO THOMAS'
p543
aS'MAHAK SACHDEVA'
p544
aS'MALVIKA SRIVASTAVA'
p545
aS'MIHIRA K S'
p546
aS'MITRAJYOTI GHOSH'
p547
aS'MOHAMMAD ISMAT'
p548
aS'MUGDHA KIRAN'
p549
aS'N EASWAR ANAND'
p550
aS'NIKHIL PATHAK'
p551
aS'POUL CHERIAN'
p552
aS'PRACHI SHUKLA'
p553
aS'PRAGYA RASTOGI'
p554
aS'RAKHI ARORA'
p555
aS'ROBIN JOHN'
p556
aS'S INDER PREET'
p557
aS'SAUMYA'
p558
aS'SHILPA'
p559
aS'SHIVANI PANDEY'
p560
aS'SHIVKUMAR RAGHUVANSHI'
p561
aS'SHUDHASHIL BHARTHUAR'
p562
aS'SIDDARTH NINGTHOUJAM'
p563
aS'SILPA MARIYA'
p564
aS'T. MANGBOI SINGSON'
p565
aS'TUHINA SINHA'
p566
aS'TUNEER CHAKRABORTY'
p567
aS'VIVEK CHAUHAN'
p568
asVI YEAR CHEMISTRY
p569
(lp570
S'Student Name'
p571
aS'AAYUSHI JOSHI'
p572
aS'ALINA ELSA CHACKO'
p573
aS'AMAN CHAUHAN'
p574
aS'ANAY MAJEE'
p575
aS'ANKIT KURIACHAN'
p576
aS'ANMOL AGARWAL'
p577
aS'ANURITA NIDHI HEMROM'
p578
aS'ARUSHI NUNWAL'
p579
aS'ARYAMA SAIKIA'
p580
aS'ASHLIN MARIO SEQUEIRA'
p581
aS'ASITANG VEER SRIVASTAVA'
p582
aS'BHAVESH GUPTA'
p583
aS'DAVIS T DANIEL'
p584
aS'DEEPA KUNDU'
p585
aS'DISHA JAIN'
p586
aS'EVA LANCE'
p587
aS'GAGAN SARAF'
p588
aS'GINCHU MARIAM SUNNY'
p589
aS'GLAISON V CHERIAN'
p590
aS'HARSHITA'
p591
aS'HELAN RAJAN'
p592
aS'HEMANI CHHABRA'
p593
aS'HIMANI GUPTA'
p594
aS'IRENE ELSA ABRAHAM'
p595
aS'JASON THOMAS'
p596
aS'JINCE GEORGE'
p597
aS'KANPATLUNG GANGMEI'
p598
aS'LINU P SAJI'
p599
aS'LUNGSETMANG HANGSHING'
p600
aS'LUNTHANGLIEN CHIRU'
p601
aS'MATHEW MATHEW ALANI JUNIOR'
p602
aS'MONIKA'
p603
aS'NAKUL SHARMA'
p604
aS'NIDHI SHARMA'
p605
aS'NIMISHA ABRAHAM'
p606
aS'NITIKA GARG'
p607
aS'RAGHAV PANGASA'
p608
aS'RAHUL BAREJA'
p609
aS'RAVI SHARMA'
p610
aS'RISHABH PRATAP SINGH'
p611
aS'RIYA GEORGE'
p612
aS'ROSHNY SAJI'
p613
aS'SACHIN SRINIVAS'
p614
aS'SAMADRAM ROBINSON MEETEI'
p615
aS'SANSKRITI BHARDWAJ'
p616
aS'SHIVAM KUMAR'
p617
aS'SHREYA SINHA'
p618
aS'SHRIYA GUMBER'
p619
aS'SHUBAANGI BISHT'
p620
aS'SONALI KHANNA'
p621
aS'STEPHY JOMY'
p622
aS'SUGAM SINGH'
p623
aS'T. AASHISH'
p624
aS'TIMOTHY GEORGE D MONTE'
p625
aS'VAANI - LAL'
p626
asVIII YEAR B. SC. PROG. CHEMISTRY
p627
(lp628
S'Student Name'
p629
aS'AJIT DESHPANDE'
p630
aS'ANURAG BANERJEE'
p631
aS'ARJOONN SHARMA'
p632
aS'ASHVATTH VERMA'
p633
aS'DEEPAK KUMAR'
p634
aS'DIPTI ROY'
p635
aS'GAGAN MAHAJAN'
p636
aS'ISHAN TANEJA'
p637
aS'JEFFREY MATHEWS'
p638
aS'KANAV SARAF'
p639
aS'MOHIT GAHLAWAT'
p640
aS'PRABHAT CHATTERJEE'
p641
aS'RAGHAV APOORV'
p642
aS'RAJEEV'
p643
aS'REUBEN DAS'
p644
aS'SACHU SANIL'
p645
aS'SAIKET TALUKDAR'
p646
aS'SAJO MON S'
p647
aS'SAMARTH MATHUR'
p648
aS'SANI K YADAV'
p649
aS'SHIVAM DIXIT'
p650
aS'SHUBHAM RUHELA'
p651
aS'SWATI NIGAM'
p652
aS'TUSHAR MISHRA'
p653
asVIII YEAR B. A. HONOURS PHILOSOPHY
p654
(lp655
S'Student Name'
p656
aS'JAGRITI WALIA'
p657
aS'KRISHNA KANT AWASTHI'
p658
aS'PANKAJ KUMAR JHA'
p659
aS'SHASHI PRABHA'
p660
aS'SUYOG MISHRA'
p661
aS'UPASIKA GHOSH'
p662
aS'VAIBHAV SHUKLA'
p663
asVII YEAR B. A. HONOURS SANSKRIT
p664
(lp665
S'Student Name'
p666
aS'AAROHI SOOD'
p667
aS'ABRAHAM MATHEW AYALLORE'
p668
aS'AKHIL BINNY PHILIP'
p669
aS'ANGELA MASSEY'
p670
aS'ANKIT'
p671
aS'AVIRAL PRAKASH'
p672
aS'BENOY STEPHEN DEVANESAN'
p673
aS'DEEPESH GHOSH'
p674
aS'DHRUV GOPINATH'
p675
aS'DIKSHA GOYAL'
p676
aS'JAYANT S DHARAMJIT'
p677
aS'JORDAN MURIEL'
p678
aS'JYOTI'
p679
aS'KANAV CHANDRA'
p680
aS'KOPAL KAPOOR'
p681
aS'LALRINGZUALA'
p682
aS'MALVIKA SEJWAL'
p683
aS'MARIAM CHERIAN'
p684
aS'MEGHA GUPTA'
p685
aS'MERLYN MARIA ANTONY'
p686
aS'NANNAPANENI JAHNAVI'
p687
aS'NEELAM'
p688
aS'PHAMDOM PRINCE SINGH'
p689
aS'PRAPHUL ROBERT'
p690
aS'REBECCA MARY JOB'
p691
aS'RITIKA NAIR'
p692
aS'ROHAN JOY'
p693
aS'ROHAN MATHUR'
p694
aS'ROMA DIXIT'
p695
aS'SANDEEP FERROW'
p696
aS'SANJAY KUMAR SOREN'
p697
aS'SANJEEV GOLLA'
p698
aS'SHIVANGI SAKLANI'
p699
aS'SHREYA SINHA'
p700
aS'SNEHANSHU SADANGI'
p701
aS'SOHAN BISWAS'
p702
aS'SUSAN ABRAHAM'
p703
aS'THARUN MATHAI THOMAS'
p704
aS'TONY ALEX'
p705
aS'TSERING DOLKAR'
p706
aS'UDIT DAIMA'
p707
aS'VAIBHAV SINGH'
p708
aS'VERTIKA SINGH'
p709
aS'VICTOR GAURAV WASHINGTON'
p710
aS'W ARUBA'
p711
aS'YERUVA MEGHA REDDY'
p712
asVII YEAR B. A. HONOURS ENGLISH -SEC B
p713
(lp714
S'Student Name'
p715
aS'AALIA REBEKAH KHAN'
p716
aS'AAYUSH BAID'
p717
aS'ADITYA CHATURVEDI'
p718
aS'ADNAAN FAROOQ'
p719
aS'ADYA RAJKOTIA LUTHRA'
p720
aS'AJAY KUMAR'
p721
aS'ALLIN JOY PHILIP'
p722
aS'AMANI GINA KERR'
p723
aS'ANANYA MAHAPATRA'
p724
aS'ANISHA MARIA RAJU'
p725
aS'ANKUR DHAMA'
p726
aS'ANNALISA MANSUKHANI'
p727
aS'ASHISH VARGHESE MATHEW'
p728
aS'ATHIRA GEORGE'
p729
aS'AVI KRISH BEDI'
p730
aS'BHUPINDER SINGH SATPOLA'
p731
aS'BINIL MATHEW'
p732
aS'CHANDRANEEV DAS'
p733
aS'DAMINI GUPTA'
p734
aS'DHEERU YADAV'
p735
aS'GOPAL KUMAR SHAH'
p736
aS'GUL AFSHAN'
p737
aS'HARSHA PUJA JOSEPH'
p738
aS'ISHA GEORGE'
p739
aS'JACOB THOMAS'
p740
aS'JOSHVA ROY'
p741
aS'KAMAKSHI PAWAR'
p742
aS'KENYUNI TEP'
p743
aS'KHAMROSANG BUHRIL'
p744
aS'KIRTI'
p745
aS'LOVEINA JOY'
p746
aS'MAHROOSH BANDAY'
p747
aS'MAZHIINI RACHEL MAO'
p748
aS'MIPANTE FOKIRA B SANGMA'
p749
aS'MOHD RAHIL'
p750
aS'MONICA THOMAS'
p751
aS'MUKARRAM AHMAD WAHID'
p752
aS'MUKUL MANDAPATI'
p753
aS'N THANG MUAN LIAN'
p754
aS'NAMRATA GHOSH'
p755
aS'NEHA KUSHWAHA'
p756
aS'PRATYUSH SINGH'
p757
aS'R NILANJANA PATRA'
p758
aS'RAVINDRA JARODIYA'
p759
aS'RENE SHARANYA VERMA'
p760
aS'RISHABH PAWAR'
p761
aS'RITIKA SINGH'
p762
aS'ROHAN TALWAR'
p763
aS'ROSELEEN TIRKEY'
p764
aS'RUCHI CHAUDHURY'
p765
aS'S LINA POUMAI'
p766
aS'SAHIL EMANUEL PEW'
p767
aS'SAMPURNA KHASNABIS'
p768
aS'SANGBOI K GANGTE'
p769
aS'SAURABH'
p770
aS'SHALINI BHATTACHARYA'
p771
aS'SHANNON MATHEW'
p772
aS'SHEENA TABODA'
p773
aS'SHRISHTI MALHOTRA'
p774
aS'STELIN PAUL C'
p775
aS'SUCHISMITA PANDA'
p776
aS'SUKRITA BARUAH'
p777
aS'TAKALEMLA LONGKUMER'
p778
aS'TATHAGATA DUTTA'
p779
aS'TAUHEED'
p780
aS'TRISHA GUPTA'
p781
aS'VISHAL SINGH'
p782
aS'VYOMJIT KAPOOR'
p783
aS'WASIM ALI'
p784
asVIII YEAR B. SC. HONOURS MATHEMATICS
p785
(lp786
S'Student Name'
p787
aS'AAKRITI MAKKER'
p788
aS'AJEET KUMAR'
p789
aS'AJO JOMY'
p790
aS'ANCHAL CHADHA'
p791
aS'ANCHALA PATEL'
p792
aS'ANMOL VIRMANI'
p793
aS'ANNE GEORGE'
p794
aS'ANTONY C J'
p795
aS'ANU ARORA'
p796
aS'ANUSHKA GOEL'
p797
aS'ARSHIYA KAUR'
p798
aS'ARUN GARG'
p799
aS'BHAWNA'
p800
aS'CHRIS JOHN'
p801
aS'DEEPANSH GILL'
p802
aS'DEEPSHIKHA ACHARYA'
p803
aS'DEEPTO MAZUMDAR'
p804
aS'DINESH KUMAR KAKRAN'
p805
aS'HINA GOYAL'
p806
aS'JASMEEN KAUR'
p807
aS'KUNAL YADAV'
p808
aS'LAVEENA SACHDEVA'
p809
aS'LEEZA ABRAHAM'
p810
aS'MANASIJ PAL CHOWDHURY'
p811
aS'MEGHA'
p812
aS'MRINAL ALEXANDER EMMANUEL'
p813
aS'NAVDEEP'
p814
aS'NISHA'
p815
aS'NITESH KUMAR'
p816
aS'OSHIN PARANJAPE'
p817
aS'POOJA'
p818
aS'POOJA RATHEE'
p819
aS'PRAGATI DEMBLA'
p820
aS'PRAKRITI KALRA'
p821
aS'RAJAT GOYAL'
p822
aS'RAKTIM SEN'
p823
aS'RINYO A VALVI'
p824
aS'RITA SNEHA GOMES'
p825
aS'SHAHID AHMED'
p826
aS'SHEIKH FARHAN AMIN'
p827
aS'SHIVANI MADAN'
p828
aS'SHRADHA AGRAWAL'
p829
aS'SHREYASHI TIWARI'
p830
aS'SHUBHANGI AGARWAL'
p831
aS'SNEHA DHANKAR'
p832
aS'SONAL MAROO'
p833
aS'SUMIT KUMAR'
p834
aS'TAMANNA'
p835
aS'TANYA JAIN'
p836
aS'TARUN SINGH'
p837
aS'UJJWAL'
p838
aS'UNMESH MONDAL'
p839
aS'VARUNESH CHANDRA'
p840
aS'VISHVENDER DAHIYA'
p841
aS'VIVEK KUMAR'
p842
aS'VIVEK NAGAYACH'
p843
aS'WAYENBAM RICKSON SINGH'
p844
asVII YEAR B. A. HONOURS ENGLISH -SEC A
p845
(lp846
S'Student Name'
p847
aS'AASHISH JINDAL'
p848
aS'AINA SINGH'
p849
aS'AMBIKA TANDON'
p850
aS'ANANYA HAZARIKA'
p851
aS'ANN MARY RAPHY'
p852
aS'APOORVA DIMRI'
p853
aS'ASHWIN KANAN'
p854
aS'JOANNA MATHEWS'
p855
aS'KADAMBARI BAHL'
p856
aS'KAVYA TRESA BENNY'
p857
aS'MAHIMA SINGH'
p858
aS'MEGHNA DASS'
p859
aS'NABEELA NAZIR RIZVI'
p860
aS'NIDHI DASS'
p861
aS'PRERNA SUBRAMANIAN'
p862
aS'RACHEL ROJY'
p863
aS'RAJAT SHARMA'
p864
aS'SANAA BHUTANI'
p865
aS'SARAH JAMES'
p866
aS'SHAYANTANI DAS'
p867
aS'SHERLENE SHERIDON'
p868
aS'SHIVALIKA SHANKAR'
p869
aS'SOUMYA BAHUGUNA'
p870
aS'SUKRITI BHARDWAJ'
p871
aS'SUMEDHA CHAKRAVARTHY'
p872
aS'TANYA SAGAR'
p873
aS'VALLIKA VERMA'
p874
aS'VIBHU SHARMA'
p875
aS'VRINDA SHARMA'
p876
asVII YEAR B. A. PROGRAMME
p877
(lp878
S'Student Name'
p879
aS'AAKRITI BATRA'
p880
aS'AAYUSH GUPTA'
p881
aS'ABHINAV PARAKH'
p882
aS'ABRAHAM JOSE'
p883
aS'ADNAH BRIGHT'
p884
aS'AKSHAY GUPTA'
p885
aS'ALARIC MARTINS'
p886
aS'ALISHA RALPH'
p887
aS'ANISH  SAHNI'
p888
aS'ANN  VERGHIS'
p889
aS'APARTH SACHAN'
p890
aS'ARADHANA GUPTA'
p891
aS'ASHIMA JAIN'
p892
aS'AVANTIKA PAUL'
p893
aS'AVINASH MATHEWS'
p894
aS'BHAVYA RASTOGI'
p895
aS'DAISY MATHEW'
p896
aS'DAVID BABU'
p897
aS'DIYA DEVIAH'
p898
aS'ERA KAUNDAL'
p899
aS'GRACE  SAM'
p900
aS'HARSHITA AGARWAL'
p901
aS'JACKSON MATHEWS'
p902
aS'KAPIL MUKHI'
p903
aS'KIRAN HOODA'
p904
aS'LANUKUMZUK AIER'
p905
aS'M SUMANA SANJEEV'
p906
aS'MADHULIKA RAJAWAT'
p907
aS'MANDEEP BINDRA'
p908
aS'MANISHA PANT'
p909
aS'MICHELLE NATHANIEL'
p910
aS'NAMITHA SADANAND'
p911
aS'NEERPRIYA BAKSHI'
p912
aS'NIHARIKA  ALVA'
p913
aS'NIKITA NAGPAL'
p914
aS'PARITOSH GUPTA'
p915
aS'PAUL JOSE PATHIKULANGARA'
p916
aS'PRAPANJ R'
p917
aS'RITIKA DUA'
p918
aS'S. SHREYA'
p919
aS'SAMUEL AUGUSTIN'
p920
aS'SANJANA MIMANI'
p921
aS'SHAGOON MALHOTRA'
p922
aS'SHANNON SEQUEIRA'
p923
aS'SHERIN JAMES'
p924
aS'SHREYA CHANDRA'
p925
aS'SHWETA SOGANI'
p926
aS'SNEHA TERESA  KURIAKOSE'
p927
aS'SOURAV GOEL'
p928
aS'SURLA -'
p929
aS'TAVISH TEJAS'
p930
aS'THAIMEI NEILATHUI'
p931
aS'UTSAV SAKSENA'
p932
aS'VIBHOR AGARWAL'
p933
aS'VIDUSHI JAYATHILAK'
p934
aS'VINCENT RANGSUNG T  A'
p935
asVIII YEAR B. SC. HONOURS PHYSICS
p936
(lp937
S'Student Name'
p938
aS'AANCHAL'
p939
aS'ADITENDRA SINGH'
p940
aS'ANANYA MISHRA'
p941
aS'ANJALI'
p942
aS'ATIMA  SHAHI'
p943
aS'AVNIKA JAIN'
p944
aS'AYUSH RAI'
p945
aS'CHANDRIMA ATTRI'
p946
aS'DIVYA KUNDU'
p947
aS'GAURISH KANT'
p948
aS'HARMAN PREET KAUR JAGGI'
p949
aS'JORDAN NAMCHU'
p950
aS'KARAN GUPTA'
p951
aS'KOPAL DIXIT'
p952
aS'MIHIR KUMAR'
p953
aS'MITALI POOVAYYA'
p954
aS'MUKUND MARODIA'
p955
aS'NIKITA GUPTA'
p956
aS'PALAK AGARWAL'
p957
aS'PAPEETA'
p958
aS'PRAGATI MISHRA'
p959
aS'PRAHARSH MOHANLAL PATEL'
p960
aS'PRAKHAR SRIVASTAVA'
p961
aS'PRIYA ARORA'
p962
aS'RAGHAV DAHUJA'
p963
aS'RAHUL DEV'
p964
aS'RIBHAV PANDE'
p965
aS'SACHIN YADAV'
p966
aS'SARTHAK SETH'
p967
aS'SHOURYA AWASTHI'
p968
aS'SONALI VERMA'
p969
aS'SONU'
p970
aS'SUDHANSHU'
p971
aS'SUKRIT JOSHI'
p972
aS'TANYA SHARMA'
p973
aS'TARUN KUMAR SHARMA'
p974
aS'VARUN SHUKLA'
p975
asVI YEAR ENGLISH
p976
(lp977
S'Student Name'
p978
aS'AHAN JOSHUA PENKAR'
p979
aS'AJAY KURIAN'
p980
aS'ANAGHA GOPAL'
p981
aS'ANANDITA THAKUR'
p982
aS'ASHWIN CHETTRI'
p983
aS'AVANTIKA SINGHA'
p984
aS'BIAMBI NIEPUSENO C. B. SANGMA'
p985
aS'CINGH SAN NEM'
p986
aS'DAVID ANDREW YADAV'
p987
aS'DEBORAH DEKA'
p988
aS'DEVARATI CHAKRABARTI'
p989
aS'GENA FAZEL'
p990
aS'GURMAN SINGH'
p991
aS'HAMEAI BANSAN LYNGDOH'
p992
aS'ISAAC'
p993
aS'ISHWARI DEKA'
p994
aS'MEBIN MATHEW PAUL'
p995
aS'NILESH CHAUDHARY'
p996
aS'P RITIKA RAO'
p997
aS'POOJA MARY GEORGE'
p998
aS'RACHEL'
p999
aS'RACHEL ALEXANDER'
p1000
aS'RISHI BRYAN'
p1001
aS'RUHAAB KHAN'
p1002
aS'SAMEER . .'
p1003
aS'SHARATH JOHNSON BOSCO'
p1004
aS'SHIRIN CHOUDHARY'
p1005
aS'SHUBHAM ARYA'
p1006
aS'SONGAYAM ZIMIK'
p1007
aS'SPANDANA KALITA'
p1008
aS'UZMA SHAMIM'
p1009
aS'YAUVANIKA CHOPRA'
p1010
asVII YEAR B. A. HONOURS PHILOSOPHY
p1011
(lp1012
S'Student Name'
p1013
aS'ACHYUDANAND JHA'
p1014
aS'MUKUL DWIVEDI'
p1015
aS'NARESH KUMAR'
p1016
aS'PRAGATI MALHOTRA'
p1017
aS'RANJAN RAJ'
p1018
aS'SHASHANK SHEKHAR SINGH'
p1019
aS'SONIA'
p1020
aS'SURUCHI'
p1021
aS'TANYA JHA'
p1022
aS'UMA KUMARI'
p1023
asVI YEAR MATHEMATICS
p1024
(lp1025
S'Student Name'
p1026
aS'ADITYA PRASAD'
p1027
aS'AJIL JOSEPH'
p1028
aS'AKANKSHITA DASH'
p1029
aS'AKRITI TEWARI'
p1030
aS'AKSHAY KUMAR VT'
p1031
aS'AKSHITA SAHNI'
p1032
aS'ALLEN LEOM LEPCHA'
p1033
aS'AMANDEEP KAPOOR'
p1034
aS'AMIT KUMAR'
p1035
aS'ANJANA TIRKEY'
p1036
aS'ANNA MARY SAJAN'
p1037
aS'ANNIE TRESSA ROY'
p1038
aS'ANSH'
p1039
aS'ANSH RATIK SHARMA'
p1040
aS'APARNA MISRA'
p1041
aS'ARUSHI VISHWAKARMA'
p1042
aS'AUGUS KURIAN'
p1043
aS'AYUSHI CHAUHAN'
p1044
aS'BHAVYA MADAN'
p1045
aS'CHRISTY JOSEPH'
p1046
aS'DEEPA ANTONY'
p1047
aS'DEEPAK GOTHWAL'
p1048
aS'DEEPAK KUMAR'
p1049
aS'DEV BARAYA'
p1050
aS'DIMTHAOREI PANMEI'
p1051
aS'GARIMA THAREJA'
p1052
aS'GEMI RACHEL GEORGE'
p1053
aS'GEORGE SHAJI'
p1054
aS'GIDEON KANSOUWA'
p1055
aS'HARUKA GEORGE'
p1056
aS'HAVISHA KHURANA'
p1057
aS'HIMANSHU MITTAL'
p1058
aS'JERIN GEORGE'
p1059
aS'JOSEPH TOMS'
p1060
aS'KEVIN KOSHY PANICKER'
p1061
aS'MALVIKA RAJEEV'
p1062
aS'MANISHA ANN JOSEPH'
p1063
aS'MAREENA WILSON'
p1064
aS'MAYANK AHUJA'
p1065
aS'NIHARIKA SHARMA'
p1066
aS'NIKHIL MATHEW'
p1067
aS'NITI BHANDARI'
p1068
aS'PANKAJ KAPARI'
p1069
aS'PIYUSH ABRAHAM'
p1070
aS'PRAACHI KHERA'
p1071
aS'PRAGATI GOEL'
p1072
aS'PRIYANKA'
p1073
aS'RAGHAV ADLAKHA'
p1074
aS'RAGHAV RANVEER TALWAR'
p1075
aS'RAJIV SAVIO HERALD LINGALA'
p1076
aS'RHEA MIRIAM GOMEZ'
p1077
aS'ROHAN THOMAS ABRAHAM'
p1078
aS'SAKSHI SINGH'
p1079
aS'SAMSON SATISH LAL'
p1080
aS'SIDDHARTH BATRA'
p1081
aS'TARU TEKRIWAL'
p1082
aS'THEMSHANGLA WUNGKHAI'
p1083
aS'THRESY JOSE THARAKAN'
p1084
aS'TONY NIXON MAVELY'
p1085
aS'VANESSA ANN BEDDOE SAWKMIE'
p1086
aS'YASH MOHAN SHERRY'
p1087
asVI YEAR B. SC. PROG. COMPUTER SCIENCE
p1088
(lp1089
S'Student Name'
p1090
aS'ANGELA GILHOTRA'
p1091
aS'ANMOL RATTAN BHASIN'
p1092
aS'ANSHUL ABRAHAM'
p1093
aS'ANUBHAV DAVID'
p1094
aS'APRATIM CHANDRA SINGH'
p1095
aS'AYUSH GUPTA'
p1096
aS'HARSHUL KUHAR'
p1097
aS'HEMANG S KUMAR'
p1098
aS'JHILMIL ANURAG'
p1099
aS'JUSTIN JOSEPH'
p1100
aS'KANAV SHARMA'
p1101
aS'MAMTA YADAV'
p1102
aS'MARK VIVIAN DAS'
p1103
aS'MEHER TANDON'
p1104
aS'MELVIN DAS'
p1105
aS'MERCY TOMAR'
p1106
aS'MRINALINI GARG'
p1107
aS'MRUDANG MATHUR'
p1108
aS'NIKHIL HAJELA'
p1109
aS'PRANJAL GUPTA'
p1110
aS'PULKIT JAIN'
p1111
aS'RISHABH SINGH'
p1112
aS'RISHIKA ARYA'
p1113
aS'SAATVIK WALIA'
p1114
aS'SAHIL SAREEN'
p1115
aS'SAMEER SAMUEL'
p1116
aS'SHIVAM KHANNA'
p1117
aS'TEENA THOMAS'
p1118
asVIII YEAR B. SC. HONOURS CHEMISTRY
p1119
(lp1120
S'Student Name'
p1121
aS'ABEL THAYIL'
p1122
aS'ABHIMANYU DHANDA'
p1123
aS'ABHIMANYU YADAV'
p1124
aS'ABHISHRI'
p1125
aS'ADEELA HAMEED'
p1126
aS'ADHIRAJ SHARMA'
p1127
aS'AGAPE MARY MAMMEN'
p1128
aS'AMAN ROY'
p1129
aS'ANIRUDH GUNDHI'
p1130
aS'ANJANA JOSEPH'
p1131
aS'ANKIT YADAV'
p1132
aS'ANKUR DAVID BARROW'
p1133
aS'ARSHIA MARIA JACOB'
p1134
aS'ASHISH JOSEPH'
p1135
aS'CALVIN COLLINS'
p1136
aS'CHRISTY PIUS'
p1137
aS'DEBAYAN SAHA'
p1138
aS'DEEPAK A.V.'
p1139
aS'ISHITA MATHUR'
p1140
aS'JAISMEEN'
p1141
aS'JAISON KOSHY'
p1142
aS'JANET JOY'
p1143
aS'JUSTRUS MATHEW'
p1144
aS'KABASHREE SONOWAL'
p1145
aS'KANGHUJAM SUNINDRA SINGH'
p1146
aS'KESHAV S KRISHNAN'
p1147
aS'KEVIN THOMAS'
p1148
aS'KRISHAN DHINGRA'
p1149
aS'KRITI BHAYANA'
p1150
aS'MAHASWETA BAGCHI'
p1151
aS'MARIA KURUVILLA'
p1152
aS'MATHEW SEBASTIAN'
p1153
aS'MOHAMMAD ISMAT'
p1154
aS'NAVKIRAN KAUR'
p1155
aS'NAZARENE SIMON'
p1156
aS'NISCHCHAY SURI'
p1157
aS'NISHANT SHARMA'
p1158
aS'PARTH GAIROLA'
p1159
aS'PAYAL MITRA'
p1160
aS'PRINCE SUNIL THOMAS'
p1161
aS'RAHUL'
p1162
aS'RAHUL KALHER'
p1163
aS'RAHUL MEHRA'
p1164
aS'REIJUL SACHDEV'
p1165
aS'SABA ZIA HASSAN'
p1166
aS'SANGHMINGTHANG SANATE'
p1167
aS'SANJEEV KUMAR'
p1168
aS'SHALIN JOSE'
p1169
aS'SHANKAR'
p1170
aS'SHIHRAYIO KAYINA'
p1171
aS'SHIVANG GOYAL'
p1172
aS'SHUBHAM'
p1173
aS'SHUBHAM VARSHNEY'
p1174
aS'SOORYA JAMES'
p1175
aS'SOUMYA RANJAN DAS'
p1176
aS'SRIJAN SEHGAL'
p1177
aS'SRISHTI SAINI'
p1178
aS'T MANGBOI SINGSON'
p1179
aS'TANYA PADHI'
p1180
aS'ULLAS R S'
p1181
aS'UTSAV KUMAR'
p1182
aS'VIJAY KAUSHIK'
p1183
aS'VINU THOMAS'
p1184
asVII YEAR B. SC. HONOURS MATHEMATICS
p1185
(lp1186
S'Student Name'
p1187
aS'ADITI METHI'
p1188
aS'AKHIL MATHEW ABRAHAM'
p1189
aS'AKSHAYA ANN JOHN'
p1190
aS'ALICE PASKIN'
p1191
aS'AMANDA VICTOR'
p1192
aS'ANANYA MANCHANDA'
p1193
aS'ANJANA TOMY'
p1194
aS'ANJU VARGHESE'
p1195
aS'ANKIT GUPTA'
p1196
aS'ANNU TOMAR'
p1197
aS'ARUN JOY'
p1198
aS'ASHNA SUSAN VARKEY'
p1199
aS'B JOSHUA'
p1200
aS'DEEKSHA SINGH'
p1201
aS'DEEPAK KUMAR'
p1202
aS'DILSHEEN KAUR SAHNI'
p1203
aS'DITTO ABRAHAM THADATHIL'
p1204
aS'GAURAV KUMAR'
p1205
aS'HARMANDEEP KAUR'
p1206
aS'HARSHIT ARORA'
p1207
aS'HENRY GOMES'
p1208
aS'JAMES CORNELIUS'
p1209
aS'JASLEEN KAUR'
p1210
aS'JENNIFER JAMES'
p1211
aS'JISHA MATHEWS'
p1212
aS'JISMOL JOY'
p1213
aS'JOVIT GEORGE'
p1214
aS'JUSTIN JOSE'
p1215
aS'KANIKA VERMA'
p1216
aS'KH JOVEINE'
p1217
aS'KRITI SHARMA'
p1218
aS'LUDHIYA JOHNSON'
p1219
aS'MANISHA YADAV'
p1220
aS'MANUJ GARG'
p1221
aS'NIJITA MATHEW'
p1222
aS'PULKIT JOSHI'
p1223
aS'RABIN JACOB'
p1224
aS'RAJAT RODNEY'
p1225
aS'RITU BHARDWAJ'
p1226
aS'ROSEMARY THOMAS'
p1227
aS'ROSHNI VARGHESE'
p1228
aS'ROSMY DAVIS'
p1229
aS'SABORNI SAHA'
p1230
aS'SAHIL'
p1231
aS'SAM JOHN KOSHY'
p1232
aS'SHARON THOMAS'
p1233
aS'SHREYA JAIN'
p1234
aS'SHRIRAM'
p1235
aS'SHUBHAM KAUSHIK'
p1236
aS'SIJO ABRAHAM'
p1237
aS'SNEHA MATHEW'
p1238
aS'SUKRITA DEB'
p1239
aS'SUMEET SIDDHARTH'
p1240
aS'SURABHI AGRAWAL'
p1241
aS'SUZANNE SANTHARAJ'
p1242
aS'VAISHNAVI VERMA'
p1243
aS'VIJENDRA KUMAR'
p1244
aS'YAMINI AGARWAL'
p1245
asVI YEAR ECONOMICS
p1246
(lp1247
S'Student Name'
p1248
aS'AAKASH GULLA'
p1249
aS'ABHILASH BISWAS'
p1250
aS'ABHISHEK SINGH KADIAN'
p1251
aS'ABIGAIL SAMYUKTHA RABINDRAN'
p1252
aS'ALISHUBA MILNA PHILIP'
p1253
aS'AMOL MOSES JHA'
p1254
aS'ANAND MATHEW'
p1255
aS'ANDREW ASHISH LALL'
p1256
aS'ANKITA AGARWAL'
p1257
aS'ANMOL RATTAN SINGH BAINS'
p1258
aS'ANNU CLARA REJATH'
p1259
aS'ANUBHAV GUPTA'
p1260
aS'ANUBHAV SAGAR TEWATIA'
p1261
aS'AVISH SHIMON REVIS'
p1262
aS'AWIRAL GUPTA'
p1263
aS'BALLA SHINEY SIREESHA'
p1264
aS'CHINNGAINENG HAOKIP'
p1265
aS'DHAIRYA AGGARWAL'
p1266
aS'ELIZABATH HILARIOUS'
p1267
aS'H. CHINLIANSANG SIMTE'
p1268
aS'IRA LILIAN ABRAHAM'
p1269
aS'JASCHARAN SINGH NARULA'
p1270
aS'JAYATI BHARADWAJ'
p1271
aS'JENNY SUSAN JOHN'
p1272
aS'JOSEPH THOMAS'
p1273
aS'KUNJ BANSAL'
p1274
aS'LAL THANVARA SAILO'
p1275
aS'MADHAV BHATIA'
p1276
aS'MANU PIUS PANJIKARAN'
p1277
aS'NAMRATA SARAH CALEB'
p1278
aS'NIKHITHA MARY MATHEW'
p1279
aS'NIKITA SINGH'
p1280
aS'NIKUNJ GUPTA'
p1281
aS'PARINA GANDHI'
p1282
aS'PRITI'
p1283
aS'PRIYAMVADA SARAF'
p1284
aS'RHEA CHACKO'
p1285
aS'ROCHAN DAYAL MATHUR'
p1286
aS'RUHANI'
p1287
aS'SAHIL KAPOOR'
p1288
aS'SALONI GUPTA'
p1289
aS'SAMSON ANTO KINGSLEY'
p1290
aS'SAVERI'
p1291
aS'SEERAT KAUR'
p1292
aS'SHASHREK AMBARDAR'
p1293
aS'SHIKHAR PRINCY CALEB'
p1294
aS'SHIVAM SAINI'
p1295
aS'SHIVAM TIWARI'
p1296
aS'SHREYA GOEL'
p1297
aS'SHUBHUTI KHANDELWAL'
p1298
aS'SOUMYA MATHEW'
p1299
aS'SRISHTI SANNA SATHE'
p1300
aS'SRUTHY JACOB'
p1301
aS'SURYANSH UPMANYU'
p1302
aS'THANGBIAKLIAN NUNTHUK'
p1303
aS'VIKAS KUMAR'
p1304
aS'YUGANSH MAHAJAN'
p1305
asVI YEAR PHYSICS
p1306
(lp1307
S'Student Name'
p1308
aS'ABHISHEK HITAISHI'
p1309
aS'AGRIMA SINGH'
p1310
aS'AKARSHAN RAO'
p1311
aS'AKSHAYA PAUL'
p1312
aS'ALAN GEORGE'
p1313
aS'ALEX ANTONY'
p1314
aS'ANJALI NAMBUDIRIPAD'
p1315
aS'ANKITA'
p1316
aS'ANN MILIA SEBASTIAN'
p1317
aS'ANUSHTHA'
p1318
aS'ARUN JACOB MATHEW'
p1319
aS'ASHI REBECCA CAMPBELL'
p1320
aS'ASHLY K SEBASTINE'
p1321
aS'ASHNA JOSE'
p1322
aS'CHAITANYA DWIVEDI'
p1323
aS'CHANDNI KAPOOR'
p1324
aS'EMIL MATHEW'
p1325
aS'ESHA SWAROOP'
p1326
aS'FELIX MATHEW'
p1327
aS'ISHITA AGARWAL'
p1328
aS'KSHITIZ ANANT'
p1329
aS'MANISH MEENA'
p1330
aS'MARIYA BENNY'
p1331
aS'MAXX RICHARD RAHMAN'
p1332
aS'MOHAMMAD ATIF JAVED'
p1333
aS'MOHIT KUMAR'
p1334
aS'MOSES - SIMON'
p1335
aS'NAAGESWARAN.M'
p1336
aS'NIKHIL SHARMA'
p1337
aS'NITISH TOM MICHAEL'
p1338
aS'OINAM NEPOLIAN SINGH'
p1339
aS'PRINCE M S'
p1340
aS'R.ALAN RAJ JEFFREY'
p1341
aS'RAHUL'
p1342
aS'RAHUL KUMAR'
p1343
aS'RAHUL SOMASUNDARAM'
p1344
aS'RANADEEP GHOSH DASTIDAR'
p1345
aS'RIJUL SACHDEVA'
p1346
aS'RISHWA MATHUR'
p1347
aS'ROBIN THOMAS'
p1348
aS'ROHAN MATHEW'
p1349
aS'S SARAH'
p1350
aS'SAJAY SUNNY MATHEW'
p1351
aS'SAKSHI KHAIWAL'
p1352
aS'SAMRIDHI'
p1353
aS'SAURABH KUMAR'
p1354
aS'SHIBASHISH DEVIDUTTA JAYDEV'
p1355
aS'SHIDHANTA SEN'
p1356
aS'SHIVANGI BHATTACHARYYA'
p1357
aS'SHUBHAM BANSAL'
p1358
aS'SONALI JOHN'
p1359
aS'SOURYADEEP SAHA'
p1360
aS'STEVEN JOB THOMAS'
p1361
aS'SUKRITI VERMA'
p1362
aS'SUSHMITA LAL'
p1363
aS'SUVEER GARG'
p1364
aS'TAMANNA'
p1365
aS'TIENTE RENGNEICHUONG KOIRENG'
p1366
aS'VAIBHAV CHOUDHARY'
p1367
aS'VALENTINA DEVI MAIBRAM'
p1368
aS'YASHIKA SETHI'
p1369
asVII YEAR B. A. HONOURS HISTORY
p1370
(lp1371
S'Student Name'
p1372
aS'AKHIL THOMAS'
p1373
aS'ANGELA MARY ISSAC'
p1374
aS'ARKAJ KUMAR'
p1375
aS'JOSEPH M JACOB'
p1376
aS'RIDDHIMA YADAV'
p1377
aS'RIYA SARIN'
p1378
aS'SANYA MADAN'
p1379
aS'SARAH VAHHOIHNIANG'
p1380
aS'SWAPNIL'
p1381
aS'TAMJEED KHAN'
p1382
aS'WILSON SAMUEL'
p1383
aS'ZOHRA SALIH'
p1384
asVI YEAR B. SC. PROG. CHEMISTRY
p1385
(lp1386
S'Student Name'
p1387
aS'ADEEL KHAN'
p1388
aS'ARINDAM DEBNATH'
p1389
aS'ASHANK KUMAR'
p1390
aS'ASTHA SHARMA'
p1391
aS'DAWN SEBASTIAN'
p1392
aS'JOVI VARGHESE M S'
p1393
aS'PRAGYA MISHRA'
p1394
aS'RAJ KRITI SINHA'
p1395
aS'RISHABH NIRALA'
p1396
aS'SAMPURNA BASU'
p1397
aS'SILAS GURUNG'
p1398
aS'SUMEET SIDDHARTH'
p1399
aS'THONGAM RAJESH'
p1400
aS'VIBHUTI SHARMA'
p1401
aS'VIKAS RATHORE'
p1402
aS'VIRESHWAR SINGH KHATRI'
p1403
asVIII YEAR B. A. HONOURS ENGLISH
p1404
(lp1405
S'Student Name'
p1406
aS'ADEETI PETER'
p1407
aS'ALPHIE M JOSEPH'
p1408
aS'AMRITA CHAKRAVARTY'
p1409
aS'ANKIT SHARMA'
p1410
aS'ANN VARGHESE KURIAN'
p1411
aS'ASHOKA VARDHAN MANCHALA'
p1412
aS'AVANTIKA VISWANATHAN'
p1413
aS'AYUSH RANJAN'
p1414
aS'BONOMI K MURUMI'
p1415
aS'CANDACE ANDREW'
p1416
aS'CARL JAISON'
p1417
aS'CHETAN CHAWLA'
p1418
aS'CHOPEL WANGCHUK BHUTIA'
p1419
aS'DHANANJAY SINGH GARHA'
p1420
aS'DHRUV SHEKHAR'
p1421
aS'DIAS MARIO ANTONY'
p1422
aS'EKTA CHAUHAN'
p1423
aS'FALGUNI TEWARI'
p1424
aS'GOPIKA SINGH JUDEV'
p1425
aS'HIMAKI KUMARI RATHORE'
p1426
aS'IFRA JAN'
p1427
aS'JIYASH G PHILIPOSE'
p1428
aS'JONATHAN STEPHEN'
p1429
aS'JUHI PRASAD'
p1430
aS'K JOHN KOSHY'
p1431
aS'KABIR UPMANYU'
p1432
aS'KAUSHIK NAG'
p1433
aS'LANGSUN JOSEPH J MATE'
p1434
aS'LAUREN ROBINSON'
p1435
aS'LEONARD HENRY'
p1436
aS'MANNGAILUN ZOU'
p1437
aS'MATHEW JOSEPH'
p1438
aS'NEIL ALEXANDER'
p1439
aS'NISHANT GEORGE STEPHEN'
p1440
aS'PALKI BHATTACHARYA'
p1441
aS'PREETHISH RAJA'
p1442
aS'RACHEL ISSAC'
p1443
aS'RADHIKA GOSWAMI'
p1444
aS'RAGHAV MEHROTRA'
p1445
aS'RAHUL RAJKHOWA'
p1446
aS'RAJAT MAHESHWARI'
p1447
aS'RHEA PAMELA DE SOUZA'
p1448
aS'RHEA SUSAN JOHN'
p1449
aS'RHEA URVASHI FERNANDES'
p1450
aS'ROOPALI LAKHOTIA'
p1451
aS'SABINA J SEBASTIAN'
p1452
aS'SAMARTH CHAUDHARI'
p1453
aS'SAMIRA BOSE'
p1454
aS'SANJANA RYNJAH ANAND'
p1455
aS'SANSKRITI SINGH'
p1456
aS'SARAH NENGJAHAT HAOKIP'
p1457
aS'SASHA SAMUEL'
p1458
aS'SHIV KUMAR PASWAN'
p1459
aS'SIDDHARTH THEODORE'
p1460
aS'SUHASINI KRISHNAN'
p1461
aS'SYED JAASIRAH SYEDAIN'
p1462
aS'SYLVIA LALL'
p1463
aS'TARINEE AWASTHI'
p1464
aS'THERESA JOHN MANGALATH'
p1465
aS'VAIDEHI SINGH'
p1466
aS'VATSAL VERMA'
p1467
aS'VIKAS BHATI'
p1468
aS'VILYO NEGASHANGVA'
p1469
aS'VIVEK GEORGE KURIAKOSE'
p1470
aS'YUDEN DOMA BHUTIA'
p1471
aS'YUVRAJ FRANCIS'
p1472
aS'ZAHEEN AHSAN'
p1473
as.